 tbbmalloc_proxy

 Timestamp is 5057889f (Tue Sep 18 04:31:27 2012)

 Preferred load address is 10000000

 Start         Length     Name                   Class
 0001:00000000 00002bb8H .text                   CODE
 0001:00002bc0 0000004aH .text$yc                CODE
 0001:00002c10 00000001H .text$yd                CODE
 0002:00000000 0000010cH .idata$5                DATA
 0002:0000010c 00000004H .CRT$XCA                DATA
 0002:00000110 00000004H .CRT$XCU                DATA
 0002:00000114 00000004H .CRT$XCZ                DATA
 0002:00000118 00000004H .CRT$XIA                DATA
 0002:0000011c 00000004H .CRT$XIAA               DATA
 0002:00000120 00000004H .CRT$XIZ                DATA
 0002:00000130 00000310H .rdata                  DATA
 0002:00000440 0000006dH .rdata$debug            DATA
 0002:000004b0 000000c8H .rdata$r                DATA
 0002:00000580 00000004H .rdata$sxdata           DATA
 0002:00000584 00000004H .rtc$IAA                DATA
 0002:00000588 00000004H .rtc$IZZ                DATA
 0002:0000058c 00000004H .rtc$TAA                DATA
 0002:00000590 00000004H .rtc$TZZ                DATA
 0002:00000598 000000fcH .xdata$x                DATA
 0002:00000694 0000003cH .idata$2                DATA
 0002:000006d0 00000014H .idata$3                DATA
 0002:000006e4 0000010cH .idata$4                DATA
 0002:000007f0 000004eeH .idata$6                DATA
 0002:00000ce0 00000059H .edata                  DATA
 0003:00000000 00000128H .data                   DATA
 0003:00000128 000012f0H .bss                    DATA
 0004:00000000 00000058H .rsrc$01                DATA
 0004:00000060 00000890H .rsrc$02                DATA

  Address         Publics by Value              Rva+Base       Lib:Object

 0000:00000001       ___safe_se_handler_count   00000001     <absolute>
 0000:00000000       ___ImageBase               10000000     <linker-defined>
 0001:00000000       ?safer_scalable_free2@@YAXPAX@Z 10001000 f   proxy.obj
 0001:00000010       ?safer_expand@@YAPAXPAXI@Z 10001010 f   proxy.obj
 0001:00000020       ?safer_scalable_free_msvcr70d@@YAXPAX@Z 10001020 f   proxy.obj
 0001:00000040       ?safer_scalable_msize_msvcr70d@@YAIPAX@Z 10001040 f   proxy.obj
 0001:00000060       ?safer_scalable_realloc_msvcr70d@@YAPAXPAXI@Z 10001060 f   proxy.obj
 0001:00000090       ?safer_scalable_aligned_realloc_msvcr70d@@YAPAXPAXII@Z 10001090 f   proxy.obj
 0001:000000d0       ?safer_scalable_free_msvcr70@@YAXPAX@Z 100010d0 f   proxy.obj
 0001:000000f0       ?safer_scalable_msize_msvcr70@@YAIPAX@Z 100010f0 f   proxy.obj
 0001:00000110       ?safer_scalable_realloc_msvcr70@@YAPAXPAXI@Z 10001110 f   proxy.obj
 0001:00000140       ?safer_scalable_aligned_realloc_msvcr70@@YAPAXPAXII@Z 10001140 f   proxy.obj
 0001:00000180       ?safer_scalable_free_msvcr71d@@YAXPAX@Z 10001180 f   proxy.obj
 0001:000001a0       ?safer_scalable_msize_msvcr71d@@YAIPAX@Z 100011a0 f   proxy.obj
 0001:000001c0       ?safer_scalable_realloc_msvcr71d@@YAPAXPAXI@Z 100011c0 f   proxy.obj
 0001:000001f0       ?safer_scalable_aligned_realloc_msvcr71d@@YAPAXPAXII@Z 100011f0 f   proxy.obj
 0001:00000230       ?safer_scalable_free_msvcr71@@YAXPAX@Z 10001230 f   proxy.obj
 0001:00000250       ?safer_scalable_msize_msvcr71@@YAIPAX@Z 10001250 f   proxy.obj
 0001:00000270       ?safer_scalable_realloc_msvcr71@@YAPAXPAXI@Z 10001270 f   proxy.obj
 0001:000002a0       ?safer_scalable_aligned_realloc_msvcr71@@YAPAXPAXII@Z 100012a0 f   proxy.obj
 0001:000002e0       ?safer_scalable_free_msvcr80d@@YAXPAX@Z 100012e0 f   proxy.obj
 0001:00000300       ?safer_scalable_msize_msvcr80d@@YAIPAX@Z 10001300 f   proxy.obj
 0001:00000320       ?safer_scalable_realloc_msvcr80d@@YAPAXPAXI@Z 10001320 f   proxy.obj
 0001:00000350       ?safer_scalable_aligned_realloc_msvcr80d@@YAPAXPAXII@Z 10001350 f   proxy.obj
 0001:00000390       ?safer_scalable_free_msvcr80@@YAXPAX@Z 10001390 f   proxy.obj
 0001:000003b0       ?safer_scalable_msize_msvcr80@@YAIPAX@Z 100013b0 f   proxy.obj
 0001:000003d0       ?safer_scalable_realloc_msvcr80@@YAPAXPAXI@Z 100013d0 f   proxy.obj
 0001:00000400       ?safer_scalable_aligned_realloc_msvcr80@@YAPAXPAXII@Z 10001400 f   proxy.obj
 0001:00000440       ?safer_scalable_free_msvcr90d@@YAXPAX@Z 10001440 f   proxy.obj
 0001:00000460       ?safer_scalable_msize_msvcr90d@@YAIPAX@Z 10001460 f   proxy.obj
 0001:00000480       ?safer_scalable_realloc_msvcr90d@@YAPAXPAXI@Z 10001480 f   proxy.obj
 0001:000004b0       ?safer_scalable_aligned_realloc_msvcr90d@@YAPAXPAXII@Z 100014b0 f   proxy.obj
 0001:000004f0       ?safer_scalable_free_msvcr90@@YAXPAX@Z 100014f0 f   proxy.obj
 0001:00000510       ?safer_scalable_msize_msvcr90@@YAIPAX@Z 10001510 f   proxy.obj
 0001:00000530       ?safer_scalable_realloc_msvcr90@@YAPAXPAXI@Z 10001530 f   proxy.obj
 0001:00000560       ?safer_scalable_aligned_realloc_msvcr90@@YAPAXPAXII@Z 10001560 f   proxy.obj
 0001:000005a0       ?safer_scalable_free_msvcr100d@@YAXPAX@Z 100015a0 f   proxy.obj
 0001:000005c0       ?safer_scalable_msize_msvcr100d@@YAIPAX@Z 100015c0 f   proxy.obj
 0001:000005e0       ?safer_scalable_realloc_msvcr100d@@YAPAXPAXI@Z 100015e0 f   proxy.obj
 0001:00000610       ?safer_scalable_aligned_realloc_msvcr100d@@YAPAXPAXII@Z 10001610 f   proxy.obj
 0001:00000650       ?safer_scalable_free_msvcr100@@YAXPAX@Z 10001650 f   proxy.obj
 0001:00000670       ?safer_scalable_msize_msvcr100@@YAIPAX@Z 10001670 f   proxy.obj
 0001:00000690       ?safer_scalable_realloc_msvcr100@@YAPAXPAXI@Z 10001690 f   proxy.obj
 0001:000006c0       ?safer_scalable_aligned_realloc_msvcr100@@YAPAXPAXII@Z 100016c0 f   proxy.obj
 0001:00000700       ?safer_scalable_free_msvcr110d@@YAXPAX@Z 10001700 f   proxy.obj
 0001:00000720       ?safer_scalable_msize_msvcr110d@@YAIPAX@Z 10001720 f   proxy.obj
 0001:00000740       ?safer_scalable_realloc_msvcr110d@@YAPAXPAXI@Z 10001740 f   proxy.obj
 0001:00000770       ?safer_scalable_aligned_realloc_msvcr110d@@YAPAXPAXII@Z 10001770 f   proxy.obj
 0001:000007b0       ?safer_scalable_free_msvcr110@@YAXPAX@Z 100017b0 f   proxy.obj
 0001:000007d0       ?safer_scalable_msize_msvcr110@@YAIPAX@Z 100017d0 f   proxy.obj
 0001:000007f0       ?safer_scalable_realloc_msvcr110@@YAPAXPAXI@Z 100017f0 f   proxy.obj
 0001:00000820       ?safer_scalable_aligned_realloc_msvcr110@@YAPAXPAXII@Z 10001820 f   proxy.obj
 0001:00000860       ??0bad_alloc@std@@QAE@XZ   10001860 f i proxy.obj
 0001:00000890       ??1bad_alloc@std@@UAE@XZ   10001890 f i proxy.obj
 0001:000008a0       ??_Gbad_alloc@std@@UAEPAXI@Z 100018a0 f i proxy.obj
 0001:000008a0       ??_Ebad_alloc@std@@UAEPAXI@Z 100018a0 f i proxy.obj
 0001:000008d0       ?operator_new@@YAPAXI@Z    100018d0 f   proxy.obj
 0001:00000920       ??0bad_alloc@std@@QAE@ABV01@@Z 10001920 f i proxy.obj
 0001:00000940       ?operator_new_arr@@YAPAXI@Z 10001940 f   proxy.obj
 0001:00000990       ?operator_delete@@YAXPAX@Z 10001990 f   proxy.obj
 0001:000009a0       ?operator_delete_arr@@YAXPAX@Z 100019a0 f   proxy.obj
 0001:000009b0       ?operator_new_t@@YAPAXIABUnothrow_t@std@@@Z 100019b0 f   proxy.obj
 0001:000009c0       ?operator_new_arr_t@@YAPAXIABUnothrow_t@std@@@Z 100019c0 f   proxy.obj
 0001:000009d0       ?operator_delete_t@@YAXPAXABUnothrow_t@std@@@Z 100019d0 f   proxy.obj
 0001:000009e0       ?operator_delete_arr_t@@YAXPAXABUnothrow_t@std@@@Z 100019e0 f   proxy.obj
 0001:000009f0       ?ReplaceFunctionWithStore@@YAXPBD0P6AXXZPAPBDPAP6AXXZ@Z 100019f0 f   proxy.obj
 0001:00000a50       ?doMallocReplacement@@YAXXZ 10001a50 f   proxy.obj
 0001:000017e0       _DllMain@12                100027e0 f   proxy.obj
 0001:00001810       ___TBB_malloc_proxy        10002810 f   proxy.obj
 0001:00001820       ??2@YAPAXIPAX@Z            10002820 f i tbb_function_replacement.obj
 0001:00001830       ??3@YAXPAX0@Z              10002830 f i tbb_function_replacement.obj
 0001:00001840       ?set_assertion_handler@internal@rml@@YAP6AXPBDH00@ZP6AX0H00@Z@Z 10002840 f   tbb_function_replacement.obj
 0001:00001850       ?assertion_failure@internal@rml@@YAXPBDH00@Z 10002850 f   tbb_function_replacement.obj
 0001:000018d0       ?Ptr2Addrint@@YAIPAX@Z     100028d0 f i tbb_function_replacement.obj
 0001:000018e0       ?Addrint2Ptr@@YAPAXI@Z     100028e0 f i tbb_function_replacement.obj
 0001:000018f0       ?IsInDistance@@YA_NII_J@Z  100028f0 f i tbb_function_replacement.obj
 0001:00001920       ??0MemoryBuffer@MemoryProvider@@QAE@XZ 10002920 f i tbb_function_replacement.obj
 0001:00001930       ??0MemoryBuffer@MemoryProvider@@QAE@PAXK@Z 10002930 f i tbb_function_replacement.obj
 0001:00001950       ?CreateBuffer@MemoryProvider@@AAEPAUMemoryBuffer@1@I@Z 10002950 f i tbb_function_replacement.obj
 0001:00001a70       ??1MemoryProvider@@QAE@XZ  10002a70 f i tbb_function_replacement.obj
 0001:00001a80       ?GetLocation@MemoryProvider@@QAEII@Z 10002a80 f i tbb_function_replacement.obj
 0001:00001af0       ??_H@YGXPAXIHP6EPAX0@Z@Z   10002af0 f i tbb_function_replacement.obj
 0001:00001b20       ?compareStrings@@YAIPBD0@Z 10002b20 f   tbb_function_replacement.obj
 0001:00001b60       ?CheckOpcodes@@YAIPAPBDPAX@Z 10002b60 f   tbb_function_replacement.obj
 0001:00001f40       ?ReplaceFunctionA@@YA?AW4FRR_TYPE@@PBD0P6AXXZPAPBDPAP6AXXZ@Z 10002f40 f   tbb_function_replacement.obj
 0001:00001ff0       ?ReplaceFunctionW@@YA?AW4FRR_TYPE@@PB_WPBDP6AXXZPAPBDPAP6AXXZ@Z 10002ff0 f   tbb_function_replacement.obj
 0001:000020a0       ??0MemoryProvider@@QAE@XZ  100030a0 f i tbb_function_replacement.obj
 0001:000020e0       _scalable_aligned_malloc   100030e0 f   tbbmalloc:tbbmalloc.dll
 0001:000020e6       _scalable_calloc           100030e6 f   tbbmalloc:tbbmalloc.dll
 0001:000020ec       _scalable_malloc           100030ec f   tbbmalloc:tbbmalloc.dll
 0001:000020f2       _safer_scalable_free       100030f2 f   tbbmalloc:tbbmalloc.dll
 0001:000020f8       _safer_scalable_msize      100030f8 f   tbbmalloc:tbbmalloc.dll
 0001:000020fe       _safer_scalable_realloc    100030fe f   tbbmalloc:tbbmalloc.dll
 0001:00002104       _safer_scalable_aligned_realloc 10003104 f   tbbmalloc:tbbmalloc.dll
 0001:0000210a       ??0exception@std@@QAE@ABQBDH@Z 1000310a f   MSVCRT:MSVCR100.dll
 0001:00002110       ??0type_info@@AAE@ABV0@@Z  10003110 f   MSVCRT:ti_inst.obj
 0001:0000211b       ??_Etype_info@@UAEPAXI@Z   1000311b f i MSVCRT:ti_inst.obj
 0001:00002167       ??4type_info@@AAEAAV0@ABV0@@Z 10003167 f   MSVCRT:ti_inst.obj
 0001:0000216c       ?what@exception@std@@UBEPBDXZ 1000316c f   MSVCRT:MSVCR100.dll
 0001:00002172       ??1exception@std@@UAE@XZ   10003172 f   MSVCRT:MSVCR100.dll
 0001:00002178       ??3@YAXPAX@Z               10003178 f   MSVCRT:MSVCR100.dll
 0001:0000217e       __CxxThrowException@8      1000317e f   MSVCRT:MSVCR100.dll
 0001:00002184       ??0exception@std@@QAE@ABV01@@Z 10003184 f   MSVCRT:MSVCR100.dll
 0001:0000218a       _exit                      1000318a f   MSVCRT:MSVCR100.dll
 0001:00002190       _fprintf                   10003190 f   MSVCRT:MSVCR100.dll
 0001:00002196       ___iob_func                10003196 f   MSVCRT:MSVCR100.dll
 0001:0000219c       _abort                     1000319c f   MSVCRT:MSVCR100.dll
 0001:000021a2       _fflush                    100031a2 f   MSVCRT:MSVCR100.dll
 0001:000021a8       _sprintf                   100031a8 f   MSVCRT:MSVCR100.dll
 0001:000021ae       @__security_check_cookie@4 100031ae f   MSVCRT:secchk.obj
 0001:000021be       _memset                    100031be f   MSVCRT:MSVCR100.dll
 0001:000021c4       _memcpy                    100031c4 f   MSVCRT:MSVCR100.dll
 0001:000021ca       _strncpy                   100031ca f   MSVCRT:MSVCR100.dll
 0001:000021d0       _strncmp                   100031d0 f   MSVCRT:MSVCR100.dll
 0001:000021d6       _wcsncpy                   100031d6 f   MSVCRT:MSVCR100.dll
 0001:000021dc       _wcsncmp                   100031dc f   MSVCRT:MSVCR100.dll
 0001:000021e2       __onexit                   100031e2 f   MSVCRT:atonexit.obj
 0001:00002283       _atexit                    10003283 f   MSVCRT:atonexit.obj
 0001:0000229a       _NtCurrentTeb              1000329a f i MSVCRT:crtdll.obj
 0001:000022ef       __CRT_INIT@12              100032ef f   MSVCRT:crtdll.obj
 0001:0000260f       __DllMainCRTStartup@12     1000360f f   MSVCRT:crtdll.obj
 0001:00002644       ?__ArrayUnwind@@YGXPAXIHP6EX0@Z@Z 10003644 f   MSVCRT:ehvecdtr.obj
 0001:000026a2       ??_M@YGXPAXIHP6EX0@Z@Z     100036a2 f   MSVCRT:ehvecdtr.obj
 0001:00002705       ___report_gsfailure        10003705 f   MSVCRT:gs_report.obj
 0001:0000280c       __unlock                   1000380c f   MSVCRT:MSVCR100.dll
 0001:00002812       ___dllonexit               10003812 f   MSVCRT:MSVCR100.dll
 0001:00002818       __lock                     10003818 f   MSVCRT:MSVCR100.dll
 0001:00002820       __SEH_prolog4              10003820 f   MSVCRT:sehprolg4.obj
 0001:00002865       __SEH_epilog4              10003865 f   MSVCRT:sehprolg4.obj
 0001:00002879       __except_handler4          10003879 f   MSVCRT:chandler4gs.obj
 0001:0000289e       ___clean_type_info_names   1000389e f   MSVCRT:tncleanup.obj
 0001:000028aa       __RTC_Initialize           100038aa f   MSVCRT:_initsect_.obj
 0001:000028d0       __RTC_Terminate            100038d0 f   MSVCRT:_initsect_.obj
 0001:000028f6       __malloc_crt               100038f6 f   MSVCRT:MSVCR100.dll
 0001:000028fc       _free                      100038fc f   MSVCRT:MSVCR100.dll
 0001:00002902       __encoded_null             10003902 f   MSVCRT:MSVCR100.dll
 0001:00002910       __ValidateImageBase        10003910 f   MSVCRT:pesect.obj
 0001:00002950       __FindPESection            10003950 f   MSVCRT:pesect.obj
 0001:000029a0       __IsNonwritableInCurrentImage 100039a0 f   MSVCRT:pesect.obj
 0001:00002a5c       __initterm                 10003a5c f   MSVCRT:MSVCR100.dll
 0001:00002a62       __initterm_e               10003a62 f   MSVCRT:MSVCR100.dll
 0001:00002a68       __amsg_exit                10003a68 f   MSVCRT:MSVCR100.dll
 0001:00002a6e       ___CppXcptFilter           10003a6e f   MSVCRT:MSVCR100.dll
 0001:00002a74       ___security_init_cookie    10003a74 f   MSVCRT:gs_support.obj
 0001:00002b10       ?terminate@@YAXXZ          10003b10 f   MSVCRT:MSVCR100.dll
 0001:00002b16       ??1type_info@@UAE@XZ       10003b16 f   MSVCRT:MSVCR100.dll
 0001:00002b16       ?_type_info_dtor_internal_method@type_info@@QAEXXZ 10003b16 f   MSVCRT:MSVCR100.dll
 0001:00002b1c       __crt_debugger_hook        10003b1c f   MSVCRT:MSVCR100.dll
 0001:00002b22       __except_handler4_common   10003b22 f   MSVCRT:MSVCR100.dll
 0001:00002b28       ___clean_type_info_names_internal 10003b28 f   MSVCRT:MSVCR100.dll
 0001:00002b2e       _VirtualAlloc@16           10003b2e f   kernel32:KERNEL32.dll
 0001:00002b34       _VirtualQuery@12           10003b34 f   kernel32:KERNEL32.dll
 0001:00002b3a       _VirtualProtect@16         10003b3a f   kernel32:KERNEL32.dll
 0001:00002b40       _FlushInstructionCache@12  10003b40 f   kernel32:KERNEL32.dll
 0001:00002b46       _GetCurrentProcess@0       10003b46 f   kernel32:KERNEL32.dll
 0001:00002b4c       _GetProcAddress@8          10003b4c f   kernel32:KERNEL32.dll
 0001:00002b52       _GetModuleHandleA@4        10003b52 f   kernel32:KERNEL32.dll
 0001:00002b58       _GetModuleHandleW@4        10003b58 f   kernel32:KERNEL32.dll
 0001:00002b5e       _GetSystemInfo@4           10003b5e f   kernel32:KERNEL32.dll
 0001:00002b64       _EncodePointer@4           10003b64 f   kernel32:KERNEL32.dll
 0001:00002b6a       _DecodePointer@4           10003b6a f   kernel32:KERNEL32.dll
 0001:00002b70       _InterlockedExchange@8     10003b70 f   kernel32:KERNEL32.dll
 0001:00002b76       _Sleep@4                   10003b76 f   kernel32:KERNEL32.dll
 0001:00002b7c       _InterlockedCompareExchange@12 10003b7c f   kernel32:KERNEL32.dll
 0001:00002b82       _TerminateProcess@8        10003b82 f   kernel32:KERNEL32.dll
 0001:00002b88       _UnhandledExceptionFilter@4 10003b88 f   kernel32:KERNEL32.dll
 0001:00002b8e       _SetUnhandledExceptionFilter@4 10003b8e f   kernel32:KERNEL32.dll
 0001:00002b94       _IsDebuggerPresent@0       10003b94 f   kernel32:KERNEL32.dll
 0001:00002b9a       _QueryPerformanceCounter@4 10003b9a f   kernel32:KERNEL32.dll
 0001:00002ba0       _GetTickCount@0            10003ba0 f   kernel32:KERNEL32.dll
 0001:00002ba6       _GetCurrentThreadId@0      10003ba6 f   kernel32:KERNEL32.dll
 0001:00002bac       _GetCurrentProcessId@0     10003bac f   kernel32:KERNEL32.dll
 0001:00002bb2       _GetSystemTimeAsFileTime@4 10003bb2 f   kernel32:KERNEL32.dll
 0002:00000000       __imp__GetSystemTimeAsFileTime@4 10004000     kernel32:KERNEL32.dll
 0002:00000004       __imp__GetCurrentProcessId@0 10004004     kernel32:KERNEL32.dll
 0002:00000008       __imp__GetCurrentThreadId@0 10004008     kernel32:KERNEL32.dll
 0002:0000000c       __imp__GetTickCount@0      1000400c     kernel32:KERNEL32.dll
 0002:00000010       __imp__QueryPerformanceCounter@4 10004010     kernel32:KERNEL32.dll
 0002:00000014       __imp__IsDebuggerPresent@0 10004014     kernel32:KERNEL32.dll
 0002:00000018       __imp__SetUnhandledExceptionFilter@4 10004018     kernel32:KERNEL32.dll
 0002:0000001c       __imp__TerminateProcess@8  1000401c     kernel32:KERNEL32.dll
 0002:00000020       __imp__InterlockedCompareExchange@12 10004020     kernel32:KERNEL32.dll
 0002:00000024       __imp__Sleep@4             10004024     kernel32:KERNEL32.dll
 0002:00000028       __imp__InterlockedExchange@8 10004028     kernel32:KERNEL32.dll
 0002:0000002c       __imp__DecodePointer@4     1000402c     kernel32:KERNEL32.dll
 0002:00000030       __imp__EncodePointer@4     10004030     kernel32:KERNEL32.dll
 0002:00000034       __imp__GetSystemInfo@4     10004034     kernel32:KERNEL32.dll
 0002:00000038       __imp__GetModuleHandleW@4  10004038     kernel32:KERNEL32.dll
 0002:0000003c       __imp__GetModuleHandleA@4  1000403c     kernel32:KERNEL32.dll
 0002:00000040       __imp__GetProcAddress@8    10004040     kernel32:KERNEL32.dll
 0002:00000044       __imp__GetCurrentProcess@0 10004044     kernel32:KERNEL32.dll
 0002:00000048       __imp__FlushInstructionCache@12 10004048     kernel32:KERNEL32.dll
 0002:0000004c       __imp__VirtualProtect@16   1000404c     kernel32:KERNEL32.dll
 0002:00000050       __imp__VirtualQuery@12     10004050     kernel32:KERNEL32.dll
 0002:00000054       __imp__VirtualAlloc@16     10004054     kernel32:KERNEL32.dll
 0002:00000058       __imp__UnhandledExceptionFilter@4 10004058     kernel32:KERNEL32.dll
 0002:0000005c       \177KERNEL32_NULL_THUNK_DATA 1000405c     kernel32:KERNEL32.dll
 0002:00000060       __imp__wcsncpy             10004060     MSVCRT:MSVCR100.dll
 0002:00000064       __imp__wcsncmp             10004064     MSVCRT:MSVCR100.dll
 0002:00000068       __imp___unlock             10004068     MSVCRT:MSVCR100.dll
 0002:0000006c       __imp____dllonexit         1000406c     MSVCRT:MSVCR100.dll
 0002:00000070       __imp___lock               10004070     MSVCRT:MSVCR100.dll
 0002:00000074       __imp__strncmp             10004074     MSVCRT:MSVCR100.dll
 0002:00000078       __imp___malloc_crt         10004078     MSVCRT:MSVCR100.dll
 0002:0000007c       __imp__free                1000407c     MSVCRT:MSVCR100.dll
 0002:00000080       __imp___encoded_null       10004080     MSVCRT:MSVCR100.dll
 0002:00000084       __imp___initterm           10004084     MSVCRT:MSVCR100.dll
 0002:00000088       __imp___initterm_e         10004088     MSVCRT:MSVCR100.dll
 0002:0000008c       __imp___amsg_exit          1000408c     MSVCRT:MSVCR100.dll
 0002:00000090       __imp____CppXcptFilter     10004090     MSVCRT:MSVCR100.dll
 0002:00000094       __imp_?terminate@@YAXXZ    10004094     MSVCRT:MSVCR100.dll
 0002:00000098       __imp_?_type_info_dtor_internal_method@type_info@@QAEXXZ 10004098     MSVCRT:MSVCR100.dll
 0002:0000009c       __imp___crt_debugger_hook  1000409c     MSVCRT:MSVCR100.dll
 0002:000000a0       __imp___except_handler4_common 100040a0     MSVCRT:MSVCR100.dll
 0002:000000a4       __imp____clean_type_info_names_internal 100040a4     MSVCRT:MSVCR100.dll
 0002:000000a8       __imp__strncpy             100040a8     MSVCRT:MSVCR100.dll
 0002:000000ac       __imp__memcpy              100040ac     MSVCRT:MSVCR100.dll
 0002:000000b0       __imp__memset              100040b0     MSVCRT:MSVCR100.dll
 0002:000000b4       __imp__sprintf             100040b4     MSVCRT:MSVCR100.dll
 0002:000000b8       __imp__fflush              100040b8     MSVCRT:MSVCR100.dll
 0002:000000bc       __imp__abort               100040bc     MSVCRT:MSVCR100.dll
 0002:000000c0       __imp____iob_func          100040c0     MSVCRT:MSVCR100.dll
 0002:000000c4       __imp__fprintf             100040c4     MSVCRT:MSVCR100.dll
 0002:000000c8       __imp__exit                100040c8     MSVCRT:MSVCR100.dll
 0002:000000cc       __imp_??0exception@std@@QAE@ABV01@@Z 100040cc     MSVCRT:MSVCR100.dll
 0002:000000d0       __imp___CxxThrowException@8 100040d0     MSVCRT:MSVCR100.dll
 0002:000000d4       __imp_??3@YAXPAX@Z         100040d4     MSVCRT:MSVCR100.dll
 0002:000000d8       __imp_??1exception@std@@UAE@XZ 100040d8     MSVCRT:MSVCR100.dll
 0002:000000dc       __imp_?what@exception@std@@UBEPBDXZ 100040dc     MSVCRT:MSVCR100.dll
 0002:000000e0       __imp_??0exception@std@@QAE@ABQBDH@Z 100040e0     MSVCRT:MSVCR100.dll
 0002:000000e4       __imp___onexit             100040e4     MSVCRT:MSVCR100.dll
 0002:000000e8       \177MSVCR100_NULL_THUNK_DATA 100040e8     MSVCRT:MSVCR100.dll
 0002:000000ec       __imp__safer_scalable_aligned_realloc 100040ec     tbbmalloc:tbbmalloc.dll
 0002:000000f0       __imp__safer_scalable_realloc 100040f0     tbbmalloc:tbbmalloc.dll
 0002:000000f4       __imp__safer_scalable_msize 100040f4     tbbmalloc:tbbmalloc.dll
 0002:000000f8       __imp__safer_scalable_free 100040f8     tbbmalloc:tbbmalloc.dll
 0002:000000fc       __imp__scalable_malloc     100040fc     tbbmalloc:tbbmalloc.dll
 0002:00000100       __imp__scalable_calloc     10004100     tbbmalloc:tbbmalloc.dll
 0002:00000104       __imp__scalable_aligned_malloc 10004104     tbbmalloc:tbbmalloc.dll
 0002:00000108       \177tbbmalloc_NULL_THUNK_DATA 10004108     tbbmalloc:tbbmalloc.dll
 0002:0000010c       ___xc_a                    1000410c     MSVCRT:cinitexe.obj
 0002:00000114       ___xc_z                    10004114     MSVCRT:cinitexe.obj
 0002:00000118       ___xi_a                    10004118     MSVCRT:cinitexe.obj
 0002:00000120       ___xi_z                    10004120     MSVCRT:cinitexe.obj
 0002:0000014c       ??_C@_0CA@OMDEFABD@?$DP?$DP_U?$EAYAPAXIABUnothrow_t?$EAstd?$EA?$EA?$EAZ?$AA@ 1000414c     proxy.obj
 0002:0000016c       ??_C@_0BP@ELHDJJJI@?$DP?$DP2?$EAYAPAXIABUnothrow_t?$EAstd?$EA?$EA?$EAZ?$AA@ 1000416c     proxy.obj
 0002:0000018c       ??_C@_0O@MPMHGPAJ@?$DP?$DP_V?$EAYAXPAX?$EAZ?$AA@ 1000418c     proxy.obj
 0002:0000019c       ??_C@_0N@OFJLPGHM@?$DP?$DP3?$EAYAXPAX?$EAZ?$AA@ 1000419c     proxy.obj
 0002:000001ac       ??_C@_0O@CIBFFDFI@?$DP?$DP_U?$EAYAPAXI?$EAZ?$AA@ 100041ac     proxy.obj
 0002:000001bc       ??_C@_0N@FKCFHDOM@?$DP?$DP2?$EAYAPAXI?$EAZ?$AA@ 100041bc     proxy.obj
 0002:000001cc       ??_C@_07BBLEBFDC@_expand?$AA@ 100041cc     proxy.obj
 0002:000001d4       ??_C@_0BA@GMPDBKFG@_aligned_malloc?$AA@ 100041d4     proxy.obj
 0002:000001e4       ??_C@_06DLAMMMII@calloc?$AA@ 100041e4     proxy.obj
 0002:000001ec       ??_C@_06GLDDLHNF@malloc?$AA@ 100041ec     proxy.obj
 0002:000001f4       ??_C@_0M@MFAJBGNN@msvcr71?4dll?$AA@ 100041f4     proxy.obj
 0002:00000200       ??_C@_0N@EINLMCNJ@msvcr71d?4dll?$AA@ 10004200     proxy.obj
 0002:00000210       ??_C@_0M@OFFMFHI@msvcr70?4dll?$AA@ 10004210     proxy.obj
 0002:0000021c       ??_C@_0N@OOKMMJGN@msvcr70d?4dll?$AA@ 1000421c     proxy.obj
 0002:0000022c       ??_C@_0N@BJKLIBLP@msvcr110?4dll?$AA@ 1000422c     proxy.obj
 0002:0000023c       ??_C@_0O@OLLLGADK@msvcr110d?4dll?$AA@ 1000423c     proxy.obj
 0002:0000024c       ??_C@_0N@LPNMIKAL@msvcr100?4dll?$AA@ 1000424c     proxy.obj
 0002:0000025c       ??_C@_0O@CHBBGAKE@msvcr100d?4dll?$AA@ 1000425c     proxy.obj
 0002:0000026c       ??_C@_0M@FOGKLOCF@msvcr90?4dll?$AA@ 1000426c     proxy.obj
 0002:00000278       ??_C@_0N@PLCGNLFP@msvcr90d?4dll?$AA@ 10004278     proxy.obj
 0002:00000288       ??_C@_0M@PIBNLFJB@msvcr80?4dll?$AA@ 10004288     proxy.obj
 0002:00000294       ??_C@_0N@DHIMNLMB@msvcr80d?4dll?$AA@ 10004294     proxy.obj
 0002:000002a4       ??_C@_0N@GLMGGDDP@8BFF558BEC83?$AA@ 100042a4     proxy.obj
 0002:000002b4       ??_C@_0N@HMFBFFEB@8BFF558BEC6A?$AA@ 100042b4     proxy.obj
 0002:000002c4       ??_C@_0BB@HOBCFGPJ@6A1C68?$CK?$CK?$CK?$CK?$CK?$CK?$CK?$CKE8?$AA@ 100042c4     proxy.obj
 0002:000002d8       ??_C@_0BB@NLEFNOFB@6A1868?$CK?$CK?$CK?$CK?$CK?$CK?$CK?$CKE8?$AA@ 100042d8     proxy.obj
 0002:000002ec       ??_C@_0N@FDJAKPJL@558BEC6A018B?$AA@ 100042ec     proxy.obj
 0002:00000300       ??_7bad_alloc@std@@6B@     10004300     proxy.obj
 0002:00000308       ??_C@_0P@GHFPNOJB@bad?5allocation?$AA@ 10004308     proxy.obj
 0002:00000318       ??_C@_0CM@NFDKECB@Failed?5to?5replace?5function?5?$CFs?5in@ 10004318     proxy.obj
 0002:00000344       ??_C@_0BB@DKFBHNHP@_aligned_realloc?$AA@ 10004344     proxy.obj
 0002:00000358       ??_C@_0O@LGBNDGFL@_aligned_free?$AA@ 10004358     proxy.obj
 0002:00000368       ??_C@_07EOOHGPEI@realloc?$AA@ 10004368     proxy.obj
 0002:00000370       ??_C@_06LKNEPFKJ@_msize?$AA@ 10004370     proxy.obj
 0002:00000378       ??_C@_04LIAPHEDB@free?$AA@ 10004378     proxy.obj
 0002:00000380       ??_C@_0BK@GNEKDGNN@Detailed?5description?3?5?$CFs?6?$AA@ 10004380     tbb_function_replacement.obj
 0002:0000039c       ??_C@_0CL@PHAMFLPE@Assertion?5?$CFs?5failed?5on?5line?5?$CFd?5o@ 1000439c     tbb_function_replacement.obj
 0002:000003c8       ??_C@_04CFJMJGDJ@?$CF?42X?$AA@ 100043c8     tbb_function_replacement.obj
 0002:000003d4       ??_7type_info@@6B@         100043d4     MSVCRT:ti_inst.obj
 0002:000003d8       __pRawDllMain              100043d8     MSVCRT:crtdll.obj
 0002:000003d8       __pDefaultRawDllMain       100043d8     MSVCRT:crtdll.obj
 0002:000003e4       ?ProcessDetach@NativeDll@<CrtImplementationDetails>@@0IB 100043e4     MSVCRT:tncleanup.obj
 0002:000003e8       ?ProcessAttach@NativeDll@<CrtImplementationDetails>@@0IB 100043e8     MSVCRT:tncleanup.obj
 0002:000003ec       ?ThreadAttach@NativeDll@<CrtImplementationDetails>@@0IB 100043ec     MSVCRT:tncleanup.obj
 0002:000003f0       ?ThreadDetach@NativeDll@<CrtImplementationDetails>@@0IB 100043f0     MSVCRT:tncleanup.obj
 0002:000003f4       ?ProcessVerifier@NativeDll@<CrtImplementationDetails>@@0IB 100043f4     MSVCRT:tncleanup.obj
 0002:000003f8       __load_config_used         100043f8     MSVCRT:loadcfg.obj
 0002:000004b0       ??_R4bad_alloc@std@@6B@    100044b0     proxy.obj
 0002:000004c4       ??_R3bad_alloc@std@@8      100044c4     proxy.obj
 0002:000004d4       ??_R2bad_alloc@std@@8      100044d4     proxy.obj
 0002:000004e0       ??_R1A@?0A@EA@bad_alloc@std@@8 100044e0     proxy.obj
 0002:000004fc       ??_R1A@?0A@EA@exception@std@@8 100044fc     proxy.obj
 0002:00000518       ??_R3exception@std@@8      10004518     proxy.obj
 0002:00000528       ??_R2exception@std@@8      10004528     proxy.obj
 0002:00000530       ??_R4type_info@@6B@        10004530     MSVCRT:ti_inst.obj
 0002:00000544       ??_R3type_info@@8          10004544     MSVCRT:ti_inst.obj
 0002:00000554       ??_R2type_info@@8          10004554     MSVCRT:ti_inst.obj
 0002:0000055c       ??_R1A@?0A@EA@type_info@@8 1000455c     MSVCRT:ti_inst.obj
 0002:00000580       ___safe_se_handler_table   10004580     <linker-defined>
 0002:00000584       ___rtc_iaa                 10004584     MSVCRT:_initsect_.obj
 0002:00000588       ___rtc_izz                 10004588     MSVCRT:_initsect_.obj
 0002:0000058c       ___rtc_taa                 1000458c     MSVCRT:_initsect_.obj
 0002:00000590       ___rtc_tzz                 10004590     MSVCRT:_initsect_.obj
 0002:00000598       __TI2?AVbad_alloc@std@@    10004598     proxy.obj
 0002:000005a8       __CTA2?AVbad_alloc@std@@   100045a8     proxy.obj
 0002:000005b4       __CT??_R0?AVbad_alloc@std@@@8??0bad_alloc@std@@QAE@ABV01@@Z12 100045b4     proxy.obj
 0002:000005d0       __CT??_R0?AVexception@std@@@8??0exception@std@@QAE@ABV01@@Z12 100045d0     proxy.obj
 0002:00000694       __IMPORT_DESCRIPTOR_tbbmalloc 10004694     tbbmalloc:tbbmalloc.dll
 0002:000006a8       __IMPORT_DESCRIPTOR_MSVCR100 100046a8     MSVCRT:MSVCR100.dll
 0002:000006bc       __IMPORT_DESCRIPTOR_KERNEL32 100046bc     kernel32:KERNEL32.dll
 0002:000006d0       __NULL_IMPORT_DESCRIPTOR   100046d0     tbbmalloc:tbbmalloc.dll
 0003:00000000       ?known_bytecodes@@3PAPBDA  10005000     proxy.obj
 0003:00000018       ?modules_to_replace@@3PAPBDA 10005018     proxy.obj
 0003:00000048       ?routines_to_replace@@3PAUFRData_t@@A 10005048     proxy.obj
 0003:000000c0       ??_R0?AVbad_alloc@std@@@8  100050c0     proxy.obj
 0003:000000dc       ??_R0?AVexception@std@@@8  100050dc     proxy.obj
 0003:000000f8       ??_R0?AVtype_info@@@8      100050f8     MSVCRT:ti_inst.obj
 0003:00000110       ___security_cookie         10005110     MSVCRT:gs_cookie.obj
 0003:00000114       ___security_cookie_complement 10005114     MSVCRT:gs_cookie.obj
 0003:00000120       ___native_dllmain_reason   10005120     MSVCRT:natstart.obj
 0003:00000124       ___native_vcclrit_reason   10005124     MSVCRT:natstart.obj
 0003:00000128       ?orig_msize_msvcr70d@@3P6AIPAX@ZA 10005128     proxy.obj
 0003:0000012c       ?orig_msize_msvcr70@@3P6AIPAX@ZA 1000512c     proxy.obj
 0003:00000130       ?orig_free_msvcr110d@@3P6AXPAX@ZA 10005130     proxy.obj
 0003:00000134       ?orig_msize_msvcr100d@@3P6AIPAX@ZA 10005134     proxy.obj
 0003:00000138       ?orig_free_msvcr71d@@3P6AXPAX@ZA 10005138     proxy.obj
 0003:0000013c       ?orig_free_msvcr90@@3P6AXPAX@ZA 1000513c     proxy.obj
 0003:00000140       ?orig_msize_msvcr80d@@3P6AIPAX@ZA 10005140     proxy.obj
 0003:00000144       ?orig_free_msvcr70@@3P6AXPAX@ZA 10005144     proxy.obj
 0003:00000148       ?orig_free_msvcr100d@@3P6AXPAX@ZA 10005148     proxy.obj
 0003:0000014c       ?orig_msize_msvcr71d@@3P6AIPAX@ZA 1000514c     proxy.obj
 0003:00000150       ?orig_free_msvcr70d@@3P6AXPAX@ZA 10005150     proxy.obj
 0003:00000154       ?orig_free_msvcr110@@3P6AXPAX@ZA 10005154     proxy.obj
 0003:00000158       ?orig_msize_msvcr90@@3P6AIPAX@ZA 10005158     proxy.obj
 0003:0000015c       ?orig_msize_msvcr90d@@3P6AIPAX@ZA 1000515c     proxy.obj
 0003:00000160       ?orig_free_msvcr71@@3P6AXPAX@ZA 10005160     proxy.obj
 0003:00000164       ?orig_msize_msvcr110@@3P6AIPAX@ZA 10005164     proxy.obj
 0003:00000168       ?orig_msize_msvcr110d@@3P6AIPAX@ZA 10005168     proxy.obj
 0003:0000016c       ?orig_msize_msvcr80@@3P6AIPAX@ZA 1000516c     proxy.obj
 0003:00000170       ?orig_free_msvcr80@@3P6AXPAX@ZA 10005170     proxy.obj
 0003:00000174       ?orig_free_msvcr100@@3P6AXPAX@ZA 10005174     proxy.obj
 0003:00000178       ?orig_msize_msvcr71@@3P6AIPAX@ZA 10005178     proxy.obj
 0003:0000017c       ?orig_free_msvcr80d@@3P6AXPAX@ZA 1000517c     proxy.obj
 0003:00000180       ?orig_free_msvcr90d@@3P6AXPAX@ZA 10005180     proxy.obj
 0003:00000184       ?orig_msize_msvcr100@@3P6AIPAX@ZA 10005184     proxy.obj
 0003:000013fc       ?__type_info_root_node@@3U__type_info_node@@A 100063fc     MSVCRT:tncleanup.obj
 0003:00001404       ___native_startup_state    10006404     <common>
 0003:00001408       ___native_startup_lock     10006408     <common>
 0003:0000140c       ___dyn_tls_init_callback   1000640c     <common>
 0003:00001410       ___onexitend               10006410     <common>
 0003:00001414       ___onexitbegin             10006414     <common>

 entry point at        0001:0000260f

 Static symbols

 0001:00001cd0       ?InsertTrampoline32@@YAKPAX0PAPBDPAPAX@Z 10002cd0 f   tbb_function_replacement.obj
 0001:00001db0       ?InsertTrampoline64@@YAKPAX0PAPBDPAPAX@Z 10002db0 f   tbb_function_replacement.obj
 0001:00001ea0       ?InsertTrampoline@@YA_NPAX0PAPBDPAPAX@Z 10002ea0 f   tbb_function_replacement.obj
 0001:000022a1       _pre_c_init                100032a1 f   MSVCRT:crtdll.obj
 0001:000024f9       ___DllMainCRTStartup       100034f9 f   MSVCRT:crtdll.obj
 0001:00002632       ?ArrayUnwindFilter@@YAHPAU_EXCEPTION_POINTERS@@@Z 10003632 f   MSVCRT:ehvecdtr.obj
 0001:00002bc0       ??__EmemProvider@@YAXXZ    10003bc0 f   tbb_function_replacement.obj
 0001:00002c10       ??__FmemProvider@@YAXXZ    10003c10 f   tbb_function_replacement.obj
