 tbb_debug

 Timestamp is 5057885f (Tue Sep 18 04:30:23 2012)

 Preferred load address is 10000000

 Start         Length     Name                   Class
 0001:00000000 0002805aH .text                   CODE
 0001:00028060 000012a3H .text$x                 CODE
 0001:00029310 0000028fH .text$yc                CODE
 0001:000295a0 0000001fH .text$yd                CODE
 0002:00000000 000001f8H .idata$5                DATA
 0002:000001f8 00000004H .CRT$XCA                DATA
 0002:000001fc 00000040H .CRT$XCU                DATA
 0002:0000023c 00000004H .CRT$XCZ                DATA
 0002:00000240 00000004H .CRT$XIA                DATA
 0002:00000244 00000004H .CRT$XIAA               DATA
 0002:00000248 00000004H .CRT$XIZ                DATA
 0002:00000250 0000f35cH .rdata                  DATA
 0002:0000f5ac 00000065H .rdata$debug            DATA
 0002:0000f614 00000d68H .rdata$r                DATA
 0002:0001037c 00000004H .rtc$IAA                DATA
 0002:00010380 00000004H .rtc$IZZ                DATA
 0002:00010384 00000004H .rtc$TAA                DATA
 0002:00010388 00000004H .rtc$TZZ                DATA
 0002:00010390 00001a44H .xdata$x                DATA
 0002:00011dd4 0000003cH .idata$2                DATA
 0002:00011e10 00000014H .idata$3                DATA
 0002:00011e24 000001f8H .idata$4                DATA
 0002:0001201c 00000a0eH .idata$6                DATA
 0002:00012a30 000034e3H .edata                  DATA
 0003:00000000 00001408H .data                   DATA
 0003:00001408 00002878H .bss                    DATA
 0004:00000000 00000058H .rsrc$01                DATA
 0004:00000060 000008c0H .rsrc$02                DATA

  Address         Publics by Value              Rva+Base       Lib:Object

 0000:00000000       __except_list              00000000     <absolute>
 0000:00000000       ___safe_se_handler_table   00000000     <absolute>
 0000:00000000       ___safe_se_handler_count   00000000     <absolute>
 0000:00009876       __fltused                  00009876     <absolute>
 0000:00009876       __ldused                   00009876     <absolute>
 0000:00000000       ___ImageBase               10000000     <linker-defined>
 0001:00000000       ?internal_grow_predicate@hash_map_segment_base@internal@tbb@@QBE_NXZ 10001000 f   concurrent_hash_map.obj
 0001:00000040       ??B?$atomic_impl@I@internal@tbb@@QDEIXZ 10001040 f i concurrent_hash_map.obj
 0001:00000060       ??$__TBB_load_with_acquire@H@internal@tbb@@YAHADH@Z 10001060 f i concurrent_hash_map.obj
 0001:00000080       ?load_with_acquire@?$machine_load_store@H$03@internal@tbb@@SAHADH@Z 10001080 f i concurrent_hash_map.obj
 0001:000000a0       ?size_t_select@internal@tbb@@YAII_K@Z 100010a0 f i concurrent_hash_map.obj
 0001:000000d0       ?push@micro_queue@internal@tbb@@QAEXPBXIAAVconcurrent_queue_base_v3@23@@Z 100010d0 f   concurrent_queue.obj
 0001:00000340       ?abort_push@micro_queue@internal@tbb@@QAEXIAAVconcurrent_queue_base_v3@23@@Z 10001340 f   concurrent_queue.obj
 0001:00000360       ?pop@micro_queue@internal@tbb@@QAE_NPAXIAAVconcurrent_queue_base_v3@23@@Z 10001360 f   concurrent_queue.obj
 0001:000004f0       ?assign@micro_queue@internal@tbb@@QAEAAU123@ABU123@AAVconcurrent_queue_base_v3@23@@Z 100014f0 f   concurrent_queue.obj
 0001:00000790       ?make_copy@micro_queue@internal@tbb@@QAEPAUpage@concurrent_queue_base_v3@23@AAV523@PBU4523@IIAAI@Z 10001790 f   concurrent_queue.obj
 0001:00000820       ?make_invalid@micro_queue@internal@tbb@@QAEXI@Z 10001820 f   concurrent_queue.obj
 0001:000008f0       ??0concurrent_queue_base_v3@internal@tbb@@IAE@I@Z 100018f0 f   concurrent_queue.obj
 0001:00000b70       ??1concurrent_queue_base_v3@internal@tbb@@MAE@XZ 10001b70 f   concurrent_queue.obj
 0001:00000c00       ?internal_push@concurrent_queue_base_v3@internal@tbb@@IAEXPBX@Z 10001c00 f   concurrent_queue.obj
 0001:00000e40       ?internal_pop@concurrent_queue_base_v3@internal@tbb@@IAEXPAX@Z 10001e40 f   concurrent_queue.obj
 0001:00001040       ?internal_abort@concurrent_queue_base_v3@internal@tbb@@IAEXXZ 10002040 f   concurrent_queue.obj
 0001:00001070       ?internal_pop_if_present@concurrent_queue_base_v3@internal@tbb@@IAE_NPAX@Z 10002070 f   concurrent_queue.obj
 0001:00001120       ?internal_push_if_not_full@concurrent_queue_base_v3@internal@tbb@@IAE_NPBX@Z 10002120 f   concurrent_queue.obj
 0001:000011d0       ?internal_size@concurrent_queue_base_v3@internal@tbb@@IBEHXZ 100021d0 f   concurrent_queue.obj
 0001:00001240       ?internal_empty@concurrent_queue_base_v3@internal@tbb@@IBE_NXZ 10002240 f   concurrent_queue.obj
 0001:000012c0       ?internal_set_capacity@concurrent_queue_base_v3@internal@tbb@@IAEXHI@Z 100022c0 f   concurrent_queue.obj
 0001:000012f0       ?internal_finish_clear@concurrent_queue_base_v3@internal@tbb@@IAEXXZ 100022f0 f   concurrent_queue.obj
 0001:000013c0       ?internal_throw_exception@concurrent_queue_base_v3@internal@tbb@@IBEXXZ 100023c0 f   concurrent_queue.obj
 0001:000013e0       ?assign@concurrent_queue_base_v3@internal@tbb@@IAEXABV123@@Z 100023e0 f   concurrent_queue.obj
 0001:00001500       ?initialize@concurrent_queue_iterator_base_v3@internal@tbb@@AAEXABVconcurrent_queue_base_v3@23@I@Z 10002500 f   concurrent_queue.obj
 0001:000015d0       ??0concurrent_queue_iterator_base_v3@internal@tbb@@IAE@ABVconcurrent_queue_base_v3@12@@Z 100025d0 f   concurrent_queue.obj
 0001:000015f0       ??0concurrent_queue_iterator_base_v3@internal@tbb@@IAE@ABVconcurrent_queue_base_v3@12@I@Z 100025f0 f   concurrent_queue.obj
 0001:00001610       ?assign@concurrent_queue_iterator_base_v3@internal@tbb@@IAEXABV123@@Z 10002610 f   concurrent_queue.obj
 0001:000016c0       ?advance@concurrent_queue_iterator_base_v3@internal@tbb@@IAEXXZ 100026c0 f   concurrent_queue.obj
 0001:000017c0       ??1concurrent_queue_iterator_base_v3@internal@tbb@@IAE@XZ 100027c0 f   concurrent_queue.obj
 0001:00001840       ??0atomic_backoff@internal@tbb@@QAE@XZ 10002840 f i concurrent_queue.obj
 0001:00001860       ??0no_copy@internal@tbb@@QAE@XZ 10002860 f i concurrent_queue.obj
 0001:00001870       ?pause@atomic_backoff@internal@tbb@@QAEXXZ 10002870 f i concurrent_queue.obj
 0001:000018b0       ?throw_exception@internal@tbb@@YAXW4exception_id@12@@Z 100028b0 f i concurrent_queue.obj
 0001:000018d0       ??0scoped_lock@spin_mutex@tbb@@QAE@AAV12@@Z 100028d0 f i concurrent_queue.obj
 0001:00001900       ??1scoped_lock@spin_mutex@tbb@@QAE@XZ 10002900 f i concurrent_queue.obj
 0001:00001920       ??0micro_queue_pop_finalizer@internal@tbb@@QAE@AAUmicro_queue@12@AAVconcurrent_queue_base_v3@12@IPAUpage@412@@Z 10002920 f i concurrent_queue.obj
 0001:00001960       ??1micro_queue_pop_finalizer@internal@tbb@@QAE@XZ 10002960 f i concurrent_queue.obj
 0001:00001a30       ??4?$atomic@I@tbb@@QAEII@Z 10002a30 f i concurrent_queue.obj
 0001:00001a50       ??4?$atomic@I@tbb@@QAEAAU01@ABU01@@Z 10002a50 f i concurrent_queue.obj
 0001:00001a80       ??2@YAPAXIPAX@Z            10002a80 f i concurrent_queue.obj
 0001:00001a90       ??3@YAXPAX0@Z              10002a90 f i concurrent_queue.obj
 0001:00001aa0       ??0concurrent_monitor@internal@tbb@@QAE@XZ 10002aa0 f i concurrent_queue.obj
 0001:00001b20       ??0spin_mutex@tbb@@QAE@XZ  10002b20 f i concurrent_queue.obj
 0001:00001b40       ??0circular_doubly_linked_list_with_sentinel@internal@tbb@@QAE@XZ 10002b40 f i concurrent_queue.obj
 0001:00001b70       ??0node_t@circular_doubly_linked_list_with_sentinel@internal@tbb@@QAE@XZ 10002b70 f i concurrent_queue.obj
 0001:00001ba0       ??1circular_doubly_linked_list_with_sentinel@internal@tbb@@QAE@XZ 10002ba0 f i concurrent_queue.obj
 0001:00001bf0       ?clear@circular_doubly_linked_list_with_sentinel@internal@tbb@@QAEXXZ 10002bf0 f i concurrent_queue.obj
 0001:00001c30       ??_Econcurrent_queue_base_v3@internal@tbb@@MAEPAXI@Z 10002c30 f i concurrent_queue.obj
 0001:00001c30       ??_Gconcurrent_queue_base_v3@internal@tbb@@MAEPAXI@Z 10002c30 f i concurrent_queue.obj
 0001:00001c60       ??0thread_context@concurrent_monitor@internal@tbb@@QAE@XZ 10002c60 f i concurrent_queue.obj
 0001:00001cc0       ??1thread_context@concurrent_monitor@internal@tbb@@QAE@XZ 10002cc0 f i concurrent_queue.obj
 0001:00001d10       ?semaphore@thread_context@concurrent_monitor@internal@tbb@@QAEAAVbinary_semaphore@34@XZ 10002d10 f i concurrent_queue.obj
 0001:00001d30       ?commit_wait@concurrent_monitor@internal@tbb@@QAE_NAAVthread_context@123@@Z 10002d30 f i concurrent_queue.obj
 0001:00001df0       ??_Gbinary_semaphore@internal@tbb@@QAEPAXI@Z 10002df0 f i concurrent_queue.obj
 0001:00001e20       ??0predicate_leq@internal@tbb@@QAE@I@Z 10002e20 f i concurrent_queue.obj
 0001:00001e40       ?choose@concurrent_queue_rep@internal@tbb@@QAEAAUmicro_queue@23@I@Z 10002e40 f i concurrent_queue.obj
 0001:00001e70       ?index@concurrent_queue_rep@internal@tbb@@SAII@Z 10002e70 f i concurrent_queue.obj
 0001:00001e90       ?abort_all@concurrent_monitor@internal@tbb@@QAEXXZ 10002e90 f i concurrent_queue.obj
 0001:00001eb0       ?atomic_fence@tbb@@YAXXZ   10002eb0 f i concurrent_queue.obj
 0001:00001ec0       ??0concurrent_queue_iterator_rep@internal@tbb@@QAE@ABVconcurrent_queue_base_v3@12@I@Z 10002ec0 f i concurrent_queue.obj
 0001:00001f40       ?get_item@concurrent_queue_iterator_rep@internal@tbb@@QAE_NAAPAXI@Z 10002f40 f i concurrent_queue.obj
 0001:00002000       ??Y?$atomic_impl_with_arithmetic@IID@internal@tbb@@QAEII@Z 10003000 f i concurrent_queue.obj
 0001:00002020       ??E?$atomic_impl_with_arithmetic@IID@internal@tbb@@QAEIXZ 10003020 f i concurrent_queue.obj
 0001:00002040       ??F?$atomic_impl_with_arithmetic@IID@internal@tbb@@QAEIXZ 10003040 f i concurrent_queue.obj
 0001:00002060       ??E?$atomic_impl_with_arithmetic@IID@internal@tbb@@QAEIH@Z 10003060 f i concurrent_queue.obj
 0001:00002080       ??F?$atomic_impl_with_arithmetic@IID@internal@tbb@@QAEIH@Z 10003080 f i concurrent_queue.obj
 0001:000020a0       ?compare_and_swap@?$atomic_impl@I@internal@tbb@@QAEIII@Z 100030a0 f i concurrent_queue.obj
 0001:000020c0       ?store_with_release@?$atomic_impl@I@internal@tbb@@IAEII@Z 100030c0 f i concurrent_queue.obj
 0001:000020f0       ?begin@?$aligned_space@Vbinary_semaphore@internal@tbb@@$00@tbb@@QAEPAVbinary_semaphore@internal@2@XZ 100030f0 f i concurrent_queue.obj
 0001:00002110       ??4?$atomic@_N@tbb@@QAE_N_N@Z 10003110 f i concurrent_queue.obj
 0001:00002130       ??B?$atomic_impl@_N@internal@tbb@@QDE_NXZ 10003130 f i concurrent_queue.obj
 0001:00002150       ??4?$atomic@PAUpage@concurrent_queue_base_v3@internal@tbb@@@tbb@@QAEPAUpage@concurrent_queue_base_v3@internal@1@PAU2341@@Z 10003150 f i concurrent_queue.obj
 0001:00002170       ??B?$atomic_impl@PAUpage@concurrent_queue_base_v3@internal@tbb@@@internal@tbb@@QDEPAUpage@concurrent_queue_base_v3@12@XZ 10003170 f i concurrent_queue.obj
 0001:00002190       ??0?$cache_aligned_allocator@Vconcurrent_queue_rep@internal@tbb@@@tbb@@QAE@XZ 10003190 f i concurrent_queue.obj
 0001:000021a0       ?allocate@?$cache_aligned_allocator@Vconcurrent_queue_rep@internal@tbb@@@tbb@@QAEPAVconcurrent_queue_rep@internal@2@IPBX@Z 100031a0 f i concurrent_queue.obj
 0001:000021d0       ?deallocate@?$cache_aligned_allocator@Vconcurrent_queue_rep@internal@tbb@@@tbb@@QAEXPAVconcurrent_queue_rep@internal@2@I@Z 100031d0 f i concurrent_queue.obj
 0001:000021f0       ??0?$cache_aligned_allocator@Vconcurrent_queue_iterator_rep@internal@tbb@@@tbb@@QAE@XZ 100031f0 f i concurrent_queue.obj
 0001:00002200       ?allocate@?$cache_aligned_allocator@Vconcurrent_queue_iterator_rep@internal@tbb@@@tbb@@QAEPAVconcurrent_queue_iterator_rep@internal@2@IPBX@Z 10003200 f i concurrent_queue.obj
 0001:00002220       ?deallocate@?$cache_aligned_allocator@Vconcurrent_queue_iterator_rep@internal@tbb@@@tbb@@QAEXPAVconcurrent_queue_iterator_rep@internal@2@I@Z 10003220 f i concurrent_queue.obj
 0001:00002240       ?fetch_and_add@?$atomic_impl_with_arithmetic@IID@internal@tbb@@QAEII@Z 10003240 f i concurrent_queue.obj
 0001:00002260       ?store_with_release@?$atomic_impl@_N@internal@tbb@@IAE_N_N@Z 10003260 f i concurrent_queue.obj
 0001:00002290       ?store_with_release@?$atomic_impl@PAUpage@concurrent_queue_base_v3@internal@tbb@@@internal@tbb@@IAEPAUpage@concurrent_queue_base_v3@23@PAU4523@@Z 10003290 f i concurrent_queue.obj
 0001:000022c0       ??$__TBB_load_relaxed@I@internal@tbb@@YAIADI@Z 100032c0 f i concurrent_queue.obj
 0001:000022e0       ??$__TBB_store_relaxed@IH@internal@tbb@@YAXACIH@Z 100032e0 f i concurrent_queue.obj
 0001:00002300       ?store@?$machine_load_store_relaxed@I$03@internal@tbb@@SAXACII@Z 10003300 f i concurrent_queue.obj
 0001:00002310       ??$spin_wait_until_eq@U?$atomic@I@tbb@@I@internal@tbb@@YAXADU?$atomic@I@1@I@Z 10003310 f i concurrent_queue.obj
 0001:00002340       ??$spin_wait_while_eq@U?$atomic@I@tbb@@I@internal@tbb@@YAXADU?$atomic@I@1@I@Z 10003340 f i concurrent_queue.obj
 0001:00002370       ??$notify@Upredicate_leq@internal@tbb@@@concurrent_monitor@internal@tbb@@QAEXABUpredicate_leq@12@@Z 10003370 f i concurrent_queue.obj
 0001:00002390       ??$__TBB_store_with_release@HH@internal@tbb@@YAXACHH@Z 10003390 f i concurrent_queue.obj
 0001:000023b0       ??$compare_and_swap@$0A@@?$atomic_impl@I@internal@tbb@@QAEIII@Z 100033b0 f i concurrent_queue.obj
 0001:000023f0       ??$__TBB_load_with_acquire@C@internal@tbb@@YACADC@Z 100033f0 f i concurrent_queue.obj
 0001:00002410       ??$__TBB_store_with_release@CC@internal@tbb@@YAXACCC@Z 10003410 f i concurrent_queue.obj
 0001:00002430       ??$punned_cast@PAVbinary_semaphore@internal@tbb@@V?$aligned_space@Vbinary_semaphore@internal@tbb@@$00@3@@internal@tbb@@YAPAVbinary_semaphore@01@PAV?$aligned_space@Vbinary_semaphore@internal@tbb@@$00@1@@Z 10003430 f i concurrent_queue.obj
 0001:00002450       ??$fetch_and_add@$0A@@?$atomic_impl_with_arithmetic@IID@internal@tbb@@QAEII@Z 10003450 f i concurrent_queue.obj
 0001:00002470       ?load@?$machine_load_store_relaxed@I$03@internal@tbb@@SAIADI@Z 10003470 f i concurrent_queue.obj
 0001:00002480       ?store_with_release@?$machine_load_store@H$03@internal@tbb@@SAXACHH@Z 10003480 f i concurrent_queue.obj
 0001:00002490       ?compare_and_swap@?$atomic_traits@$03$0A@@internal@tbb@@SAHPCXHH@Z 10003490 f i concurrent_queue.obj
 0001:000024b0       ?fetch_and_add@?$atomic_traits@$03$0A@@internal@tbb@@SAHPCXH@Z 100034b0 f i concurrent_queue.obj
 0001:000024d0       ?load_with_acquire@?$machine_load_store@C$00@internal@tbb@@SACADC@Z 100034d0 f i concurrent_queue.obj
 0001:000024f0       ?store_with_release@?$machine_load_store@C$00@internal@tbb@@SAXACCC@Z 100034f0 f i concurrent_queue.obj
 0001:00002500       ??$notify_relaxed@Upredicate_leq@internal@tbb@@@concurrent_monitor@internal@tbb@@QAEXABUpredicate_leq@12@@Z 10003500 f i concurrent_queue.obj
 0001:00002690       ?__TBB_store_relaxed@internal@tbb@@YAXACII@Z 10003690 f i concurrent_queue.obj
 0001:000026b0       ?empty@circular_doubly_linked_list_with_sentinel@internal@tbb@@QBE_NXZ 100036b0 f i concurrent_queue.obj
 0001:000026d0       ?size@circular_doubly_linked_list_with_sentinel@internal@tbb@@QBEIXZ 100036d0 f i concurrent_queue.obj
 0001:000026e0       ?front@circular_doubly_linked_list_with_sentinel@internal@tbb@@QBEPAUnode_t@123@XZ 100036e0 f i concurrent_queue.obj
 0001:00002700       ?last@circular_doubly_linked_list_with_sentinel@internal@tbb@@QBEPAUnode_t@123@XZ 10003700 f i concurrent_queue.obj
 0001:00002720       ?end@circular_doubly_linked_list_with_sentinel@internal@tbb@@QBEPBUnode_t@123@XZ 10003720 f i concurrent_queue.obj
 0001:00002740       ?add@circular_doubly_linked_list_with_sentinel@internal@tbb@@QAEXPAUnode_t@123@@Z 10003740 f i concurrent_queue.obj
 0001:000027a0       ?remove@circular_doubly_linked_list_with_sentinel@internal@tbb@@QAEXAAUnode_t@123@@Z 100037a0 f i concurrent_queue.obj
 0001:000027f0       ?to_thread_context@concurrent_monitor@internal@tbb@@AAEPAVthread_context@123@PAUnode_t@circular_doubly_linked_list_with_sentinel@23@@Z 100037f0 f i concurrent_queue.obj
 0001:00002800       ??Rpredicate_leq@internal@tbb@@QBE_NI@Z 10003800 f i concurrent_queue.obj
 0001:00002820       ?extend_segment_table@helper@concurrent_vector_base_v3@internal@tbb@@SAXAAV234@I@Z 10003820 f   concurrent_vector.obj
 0001:000029b0       ?enable_segment@helper@concurrent_vector_base_v3@internal@tbb@@SAIAAV234@II@Z 100039b0 f   concurrent_vector.obj
 0001:00002c20       ?cleanup@helper@concurrent_vector_base_v3@internal@tbb@@QAEXXZ 10003c20 f   concurrent_vector.obj
 0001:00002e70       ??1concurrent_vector_base_v3@internal@tbb@@IAE@XZ 10003e70 f   concurrent_vector.obj
 0001:00002f80       ?internal_capacity@concurrent_vector_base_v3@internal@tbb@@IBEIXZ 10003f80 f   concurrent_vector.obj
 0001:00002fa0       ?internal_throw_exception@concurrent_vector_base_v3@internal@tbb@@IBEXI@Z 10003fa0 f   concurrent_vector.obj
 0001:00002ff0       ?internal_reserve@concurrent_vector_base_v3@internal@tbb@@IAEXIII@Z 10003ff0 f   concurrent_vector.obj
 0001:00003130       ?internal_copy@concurrent_vector_base_v3@internal@tbb@@IAEXABV123@IP6AXPAXPBXI@Z@Z 10004130 f   concurrent_vector.obj
 0001:000032a0       ?internal_assign@concurrent_vector_base_v3@internal@tbb@@IAEXABV123@IP6AXPAXI@ZP6AX1PBXI@Z4@Z 100042a0 f   concurrent_vector.obj
 0001:000035b0       ?internal_push_back@concurrent_vector_base_v3@internal@tbb@@IAEPAXIAAI@Z 100045b0 f   concurrent_vector.obj
 0001:00003690       ?internal_grow_to_at_least@concurrent_vector_base_v3@internal@tbb@@IAEXIIP6AXPAXPBXI@Z1@Z 10004690 f   concurrent_vector.obj
 0001:000036c0       ?internal_grow_to_at_least_with_result@concurrent_vector_base_v3@internal@tbb@@IAEIIIP6AXPAXPBXI@Z1@Z 100046c0 f   concurrent_vector.obj
 0001:00003860       ?internal_grow_by@concurrent_vector_base_v3@internal@tbb@@IAEIIIP6AXPAXPBXI@Z1@Z 10004860 f   concurrent_vector.obj
 0001:000038b0       ?internal_grow@concurrent_vector_base_v3@internal@tbb@@IAEXIIIP6AXPAXPBXI@Z1@Z 100048b0 f   concurrent_vector.obj
 0001:00003a30       ?internal_resize@concurrent_vector_base_v3@internal@tbb@@IAEXIIIPBXP6AXPAXI@ZP6AX10I@Z@Z 10004a30 f   concurrent_vector.obj
 0001:00003b90       ?internal_clear@concurrent_vector_base_v3@internal@tbb@@IAEIP6AXPAXI@Z@Z 10004b90 f   concurrent_vector.obj
 0001:00003ca0       ?internal_compact@concurrent_vector_base_v3@internal@tbb@@IAEPAXIPAXP6AX0I@ZP6AX0PBXI@Z@Z 10004ca0 f   concurrent_vector.obj
 0001:000040e0       ?internal_swap@concurrent_vector_base_v3@internal@tbb@@IAEXAAV123@@Z 100050e0 f   concurrent_vector.obj
 0001:00004300       ?segment_base@concurrent_vector_base_v3@internal@tbb@@KAII@Z 10005300 f i concurrent_vector.obj
 0001:00004320       ?segment_size@concurrent_vector_base_v3@internal@tbb@@KAII@Z 10005320 f i concurrent_vector.obj
 0001:00004330       ?assign_first_segment_if_neccessary@helper@concurrent_vector_base_v3@internal@tbb@@SAXAAV234@I@Z 10005330 f i concurrent_vector.obj
 0001:00004360       ?allocate_segment@helper@concurrent_vector_base_v3@internal@tbb@@SAPAXAAV234@I@Z 10005360 f i concurrent_vector.obj
 0001:00004390       ?publish_segment@helper@concurrent_vector_base_v3@internal@tbb@@SAXAAUsegment_t@234@PAX@Z 10005390 f i concurrent_vector.obj
 0001:000043c0       ?segment_index_of@concurrent_vector_base_v3@internal@tbb@@KAII@Z 100053c0 f i concurrent_vector.obj
 0001:000043e0       ?first_segment@helper@concurrent_vector_base_v3@internal@tbb@@QAEXXZ 100053e0 f i concurrent_vector.obj
 0001:000044e0       ?next_segment@helper@concurrent_vector_base_v3@internal@tbb@@QAEXXZ 100054e0 f i concurrent_vector.obj
 0001:00004540       ?get_segment_ptr@helper@concurrent_vector_base_v3@internal@tbb@@QAEPAXI_N@Z 10005540 f i concurrent_vector.obj
 0001:000045c0       ??1segment_t@concurrent_vector_base_v3@internal@tbb@@QAE@XZ 100055c0 f i concurrent_vector.obj
 0001:000045f0       ?find_segment_end@helper@concurrent_vector_base_v3@internal@tbb@@SAIABV234@@Z 100055f0 f i concurrent_vector.obj
 0001:00004650       ?extend_table_if_necessary@helper@concurrent_vector_base_v3@internal@tbb@@SAXAAV234@II@Z 10005650 f i concurrent_vector.obj
 0001:00004680       ?acquire_segment@helper@concurrent_vector_base_v3@internal@tbb@@SAAAUsegment_t@234@AAV234@II_N@Z 10005680 f i concurrent_vector.obj
 0001:00004740       ??0helper@concurrent_vector_base_v3@internal@tbb@@QAE@PAUsegment_t@123@IIIII@Z 10005740 f i concurrent_vector.obj
 0001:00004790       ??1helper@concurrent_vector_base_v3@internal@tbb@@QAE@XZ 10005790 f i concurrent_vector.obj
 0001:000047c0       ??0init_body@helper@concurrent_vector_base_v3@internal@tbb@@QAE@P6AXPAXPBXI@Z1@Z 100057c0 f i concurrent_vector.obj
 0001:000047f0       ??0safe_init_body@helper@concurrent_vector_base_v3@internal@tbb@@QAE@P6AXPAXPBXI@Z1@Z 100057f0 f i concurrent_vector.obj
 0001:00004820       ??0destroy_body@helper@concurrent_vector_base_v3@internal@tbb@@QAE@P6AXPAXI@Z@Z 10005820 f i concurrent_vector.obj
 0001:00004840       ?incompact_predicate@helper@concurrent_vector_base_v3@internal@tbb@@SA_NI@Z 10005840 f i concurrent_vector.obj
 0001:00004890       ??4?$atomic@PAUsegment_t@concurrent_vector_base_v3@internal@tbb@@@tbb@@QAEPAUsegment_t@concurrent_vector_base_v3@internal@1@PAU2341@@Z 10005890 f i concurrent_vector.obj
 0001:000048b0       ??4?$atomic@PAUsegment_t@concurrent_vector_base_v3@internal@tbb@@@tbb@@QAEAAU01@ABU01@@Z 100058b0 f i concurrent_vector.obj
 0001:000048e0       ?compare_and_swap@?$atomic_impl@PAUsegment_t@concurrent_vector_base_v3@internal@tbb@@@internal@tbb@@QAEPAUsegment_t@concurrent_vector_base_v3@23@PAU4523@0@Z 100058e0 f i concurrent_vector.obj
 0001:00004900       ??B?$atomic_impl@PAUsegment_t@concurrent_vector_base_v3@internal@tbb@@@internal@tbb@@QDEPAUsegment_t@concurrent_vector_base_v3@12@XZ 10005900 f i concurrent_vector.obj
 0001:00004920       ?store_with_release@?$atomic_impl@PAUsegment_t@concurrent_vector_base_v3@internal@tbb@@@internal@tbb@@IAEPAUsegment_t@concurrent_vector_base_v3@23@PAU4523@@Z 10005920 f i concurrent_vector.obj
 0001:00004950       ??$__TBB_store_with_release@PAXPAX@internal@tbb@@YAXACRAXPAX@Z 10005950 f i concurrent_vector.obj
 0001:00004970       ??$__TBB_load_with_acquire@PAX@internal@tbb@@YAPAXADSAX@Z 10005970 f i concurrent_vector.obj
 0001:00004990       ??$spin_wait_while_eq@PAXPAX@internal@tbb@@YAXADSAXPAX@Z 10005990 f i concurrent_vector.obj
 0001:000049c0       ??$spin_wait_while_eq@U?$atomic@PAUsegment_t@concurrent_vector_base_v3@internal@tbb@@@tbb@@PAUsegment_t@concurrent_vector_base_v3@internal@2@@internal@tbb@@YAXADU?$atomic@PAUsegment_t@concurrent_vector_base_v3@internal@tbb@@@1@PAUsegment_t@concurrent_vector_base_v3@01@@Z 100059c0 f i concurrent_vector.obj
 0001:000049f0       ??$apply@Uinit_body@helper@concurrent_vector_base_v3@internal@tbb@@@helper@concurrent_vector_base_v3@internal@tbb@@QAEIABUinit_body@0123@@Z 100059f0 f i concurrent_vector.obj
 0001:00004ab0       ??Rinit_body@helper@concurrent_vector_base_v3@internal@tbb@@QBEXAAUsegment_t@234@PAXI@Z 10005ab0 f i concurrent_vector.obj
 0001:00004ae0       ??$apply@Usafe_init_body@helper@concurrent_vector_base_v3@internal@tbb@@@helper@concurrent_vector_base_v3@internal@tbb@@QAEIABUsafe_init_body@0123@@Z 10005ae0 f i concurrent_vector.obj
 0001:00004ba0       ??Rsafe_init_body@helper@concurrent_vector_base_v3@internal@tbb@@QBEXAAUsegment_t@234@PAXI@Z 10005ba0 f i concurrent_vector.obj
 0001:00004be0       ??$apply@Udestroy_body@helper@concurrent_vector_base_v3@internal@tbb@@@helper@concurrent_vector_base_v3@internal@tbb@@QAEIABUdestroy_body@0123@@Z 10005be0 f i concurrent_vector.obj
 0001:00004ca0       ??Rdestroy_body@helper@concurrent_vector_base_v3@internal@tbb@@QBEXAAUsegment_t@234@PAXI@Z 10005ca0 f i concurrent_vector.obj
 0001:00004cd0       ??$compare_and_swap@$0A@@?$atomic_impl@PAUsegment_t@concurrent_vector_base_v3@internal@tbb@@@internal@tbb@@QAEPAUsegment_t@concurrent_vector_base_v3@12@PAU3412@0@Z 10005cd0 f i concurrent_vector.obj
 0001:00004d10       ?load_with_acquire@?$machine_load_store@PAX$03@internal@tbb@@SAPAXADSAX@Z 10005d10 f i concurrent_vector.obj
 0001:00004d30       ?store_with_release@?$machine_load_store@PAX$03@internal@tbb@@SAXACRAXPAX@Z 10005d30 f i concurrent_vector.obj
 0001:00004d40       ?dynamic_link@internal@tbb@@YA_NPAUHINSTANCE__@@QBUdynamic_link_descriptor@12@II@Z 10005d40 f   dynamic_link.obj
 0001:00004ed0       ?dynamic_unlink@internal@tbb@@YAXPAUHINSTANCE__@@@Z 10005ed0 f   dynamic_link.obj
 0001:00004ef0       ?dynamic_link@internal@tbb@@YA_NPBDQBUdynamic_link_descriptor@12@IIPAPAUHINSTANCE__@@@Z 10005ef0 f   dynamic_link.obj
 0001:000052d0       ?dynamic_unlink_all@internal@tbb@@YAXXZ 100062d0 f   dynamic_link.obj
 0001:00005320       ?add_handle@handle_storage@internal@tbb@@QAEXAAPAUHINSTANCE__@@@Z 10006320 f i dynamic_link.obj
 0001:00005370       ?free_handles@handle_storage@internal@tbb@@QAEXXZ 10006370 f i dynamic_link.obj
 0001:000053c0       ?fetch_and_store@?$atomic_impl@I@internal@tbb@@QAEII@Z 100063c0 f i dynamic_link.obj
 0001:000053e0       ??$fetch_and_store@$0A@@?$atomic_impl@I@internal@tbb@@QAEII@Z 100063e0 f i dynamic_link.obj
 0001:00005410       ?fetch_and_store@?$atomic_traits@$03$0A@@internal@tbb@@SAHPCXH@Z 10006410 f i dynamic_link.obj
 0001:00005430       ??0handle_storage@internal@tbb@@QAE@XZ 10006430 f i dynamic_link.obj
 0001:00007fd0       ___itt_fini_ittlib         10008fd0 f   itt_notify.obj
 0001:000080b0       ___itt_init_ittlib         100090b0 f   itt_notify.obj
 0001:00008a60       ___itt_set_error_handler   10009a60 f   itt_notify.obj
 0001:00008a80       ?__TBB_load_ittnotify@internal@tbb@@YAHXZ 10009a80 f   itt_notify.obj
 0001:00008aa0       ?__itt_interlocked_increment@@YAHPCJ@Z 10009aa0 f i itt_notify.obj
 0001:00008ab0       ?initialize_handler_pointers@internal@tbb@@YAXXZ 10009ab0 f   cache_aligned_allocator.obj
 0001:00008b60       ?initialize_cache_aligned_allocator@internal@tbb@@YAXXZ 10009b60 f   cache_aligned_allocator.obj
 0001:00008c90       ?NFS_GetLineSize@internal@tbb@@YAIXZ 10009c90 f   cache_aligned_allocator.obj
 0001:00008ca0       ?NFS_Allocate@internal@tbb@@YAPAXIIPAX@Z 10009ca0 f   cache_aligned_allocator.obj
 0001:00008d90       ?NFS_Free@internal@tbb@@YAXPAX@Z 10009d90 f   cache_aligned_allocator.obj
 0001:00008e80       ?allocate_via_handler_v3@internal@tbb@@YAPAXI@Z 10009e80 f   cache_aligned_allocator.obj
 0001:00008eb0       ?deallocate_via_handler_v3@internal@tbb@@YAXPAX@Z 10009eb0 f   cache_aligned_allocator.obj
 0001:00008ed0       ?is_malloc_used_v3@internal@tbb@@YA_NXZ 10009ed0 f   cache_aligned_allocator.obj
 0001:00008fd0       ??$atomic_do_once@P6AXXZ@internal@tbb@@YAXABQ6AXXZAAU?$atomic@W4do_once_state@internal@tbb@@@1@@Z 10009fd0 f i cache_aligned_allocator.obj
 0001:00009030       ?run_initializer@internal@tbb@@YAXP6AXXZAAU?$atomic@W4do_once_state@internal@tbb@@@2@@Z 1000a030 f i cache_aligned_allocator.obj
 0001:00009050       ??4?$atomic@W4do_once_state@internal@tbb@@@tbb@@QAE?AW4do_once_state@internal@1@W4231@@Z 1000a050 f i cache_aligned_allocator.obj
 0001:00009070       ?store_with_release@?$atomic_impl@W4do_once_state@internal@tbb@@@internal@tbb@@IAE?AW4do_once_state@23@W4423@@Z 1000a070 f i cache_aligned_allocator.obj
 0001:000090a0       ?compare_and_swap@?$atomic_impl@W4do_once_state@internal@tbb@@@internal@tbb@@QAE?AW4do_once_state@23@W4423@0@Z 1000a0a0 f i cache_aligned_allocator.obj
 0001:000090c0       ??B?$atomic_impl@W4do_once_state@internal@tbb@@@internal@tbb@@QDE?AW4do_once_state@12@XZ 1000a0c0 f i cache_aligned_allocator.obj
 0001:000090e0       ??$spin_wait_while_eq@U?$atomic@W4do_once_state@internal@tbb@@@tbb@@W4do_once_state@internal@2@@internal@tbb@@YAXADU?$atomic@W4do_once_state@internal@tbb@@@1@W4do_once_state@01@@Z 1000a0e0 f i cache_aligned_allocator.obj
 0001:00009110       ??$compare_and_swap@$0A@@?$atomic_impl@W4do_once_state@internal@tbb@@@internal@tbb@@QAE?AW4do_once_state@12@W4312@0@Z 1000a110 f i cache_aligned_allocator.obj
 0001:00009150       ?grow@input_buffer@internal@tbb@@AAEXK@Z 1000a150 f   pipeline.obj
 0001:00009270       ?execute@stage_task@internal@tbb@@UAEPAVtask@3@XZ 1000a270 f   pipeline.obj
 0001:00009820       ?inject_token@pipeline@tbb@@AAEXAAVtask@2@@Z 1000a820 f   pipeline.obj
 0001:00009850       ?clear_filters@pipeline@tbb@@AAEXXZ 1000a850 f   pipeline.obj
 0001:000098b0       ??0pipeline@tbb@@QAE@XZ    1000a8b0 f   pipeline.obj
 0001:00009910       ??1pipeline@tbb@@UAE@XZ    1000a910 f   pipeline.obj
 0001:00009930       ?clear@pipeline@tbb@@QAEXXZ 1000a930 f   pipeline.obj
 0001:00009a10       ?add_filter@pipeline@tbb@@QAEXAAVfilter@2@@Z 1000aa10 f   pipeline.obj
 0001:00009d30       ?remove_filter@pipeline@tbb@@AAEXAAVfilter@2@@Z 1000ad30 f   pipeline.obj
 0001:00009ee0       ?run@pipeline@tbb@@QAEXIAAVtask_group_context@2@@Z 1000aee0 f   pipeline.obj
 0001:0000a080       ?run@pipeline@tbb@@QAEXI@Z 1000b080 f   pipeline.obj
 0001:0000a140       ?has_more_work@filter@tbb@@AAE_NXZ 1000b140 f   pipeline.obj
 0001:0000a1c0       ??1filter@tbb@@UAE@XZ      1000b1c0 f   pipeline.obj
 0001:0000a260       ?set_end_of_input@filter@tbb@@IAEXXZ 1000b260 f   pipeline.obj
 0001:0000a310       ?process_item@thread_bound_filter@tbb@@QAE?AW4result_type@12@XZ 1000b310 f   pipeline.obj
 0001:0000a330       ?try_process_item@thread_bound_filter@tbb@@QAE?AW4result_type@12@XZ 1000b330 f   pipeline.obj
 0001:0000a350       ?internal_process_item@thread_bound_filter@tbb@@AAE?AW4result_type@12@_N@Z 1000b350 f   pipeline.obj
 0001:0000a5f0       ?allocate_additional_child_of@task_base@internal@interface5@tbb@@SA?AVallocate_additional_child_of_proxy@24@AAVtask@4@@Z 1000b5f0 f i pipeline.obj
 0001:0000a610       ??0allocate_additional_child_of_proxy@internal@tbb@@QAE@AAVtask@2@@Z 1000b610 f i pipeline.obj
 0001:0000a640       ?recycle_as_continuation@task@tbb@@QAEXXZ 1000b640 f i pipeline.obj
 0001:0000a690       ?add_to_depth@task@tbb@@QAEXH@Z 1000b690 f i pipeline.obj
 0001:0000a6a0       ?parent@task@tbb@@QBEPAV12@XZ 1000b6a0 f i pipeline.obj
 0001:0000a6c0       ?prefix@task@tbb@@ABEAAVtask_prefix@internal@2@PAUversion_tag_v3@42@@Z 1000b6c0 f i pipeline.obj
 0001:0000a6e0       ?spawn@task_base@internal@interface5@tbb@@SAXAAVtask@4@@Z 1000b6e0 f i pipeline.obj
 0001:0000a720       ??2@YAPAXIABVallocate_additional_child_of_proxy@internal@tbb@@@Z 1000b720 f i pipeline.obj
 0001:0000a740       ??3@YAXPAXABVallocate_additional_child_of_proxy@internal@tbb@@@Z 1000b740 f i pipeline.obj
 0001:0000a760       ?is_serial@filter@tbb@@QBE_NXZ 1000b760 f i pipeline.obj
 0001:0000a780       ?is_ordered@filter@tbb@@QBE_NXZ 1000b780 f i pipeline.obj
 0001:0000a7a0       ?is_bound@filter@tbb@@QBE_NXZ 1000b7a0 f i pipeline.obj
 0001:0000a7c0       ?object_may_be_null@filter@tbb@@QAE_NXZ 1000b7c0 f i pipeline.obj
 0001:0000a7e0       ?sema_V@input_buffer@internal@tbb@@AAEXXZ 1000b7e0 f i pipeline.obj
 0001:0000a820       ?V@semaphore@internal@tbb@@QAEXXZ 1000b820 f i pipeline.obj
 0001:0000a840       ?put_token@input_buffer@internal@tbb@@QAE_NAAUtask_info@23@_N@Z 1000b840 f i pipeline.obj
 0001:0000aa10       ?return_item@input_buffer@internal@tbb@@QAE_NAAUtask_info@23@_N@Z 1000ba10 f i pipeline.obj
 0001:0000ab00       ?my_tls_end_of_input@input_buffer@internal@tbb@@QAE_NXZ 1000bb00 f i pipeline.obj
 0001:0000ab20       ??0stage_task@internal@tbb@@QAE@AAVpipeline@2@@Z 1000bb20 f i pipeline.obj
 0001:0000aba0       ??0task@tbb@@IAE@XZ        1000bba0 f i pipeline.obj
 0001:0000abd0       ??1task@tbb@@UAE@XZ        1000bbd0 f i pipeline.obj
 0001:0000abf0       ??_Gtask@tbb@@UAEPAXI@Z    1000bbf0 f i pipeline.obj
 0001:0000abf0       ??_Etask@tbb@@UAEPAXI@Z    1000bbf0 f i pipeline.obj
 0001:0000ac20       ??0task_base@internal@interface5@tbb@@QAE@XZ 1000bc20 f i pipeline.obj
 0001:0000ac40       ?reset@task_info@internal@tbb@@QAEXXZ 1000bc40 f i pipeline.obj
 0001:0000ac70       ?reset@stage_task@internal@tbb@@QAEXXZ 1000bc70 f i pipeline.obj
 0001:0000aca0       ??_Estage_task@internal@tbb@@UAEPAXI@Z 1000bca0 f i pipeline.obj
 0001:0000aca0       ??_Gstage_task@internal@tbb@@UAEPAXI@Z 1000bca0 f i pipeline.obj
 0001:0000acd0       ??1stage_task@internal@tbb@@UAE@XZ 1000bcd0 f i pipeline.obj
 0001:0000ada0       ?is_cancelled@task@tbb@@QBE_NXZ 1000bda0 f i pipeline.obj
 0001:0000adc0       ?clear@input_buffer@internal@tbb@@QAEXPAVfilter@3@@Z 1000bdc0 f i pipeline.obj
 0001:0000ae40       ??4?$atomic@K@tbb@@QAEKK@Z 1000be40 f i pipeline.obj
 0001:0000ae60       ??_Epipeline@tbb@@UAEPAXI@Z 1000be60 f i pipeline.obj
 0001:0000ae60       ??_Gpipeline@tbb@@UAEPAXI@Z 1000be60 f i pipeline.obj
 0001:0000ae90       ?not_in_pipeline@filter@tbb@@CAPAV12@XZ 1000be90 f i pipeline.obj
 0001:0000aea0       ??_Ginput_buffer@internal@tbb@@QAEPAXI@Z 1000bea0 f i pipeline.obj
 0001:0000aed0       ??1input_buffer@internal@tbb@@QAE@XZ 1000bed0 f i pipeline.obj
 0001:0000af50       ?free_sema@input_buffer@internal@tbb@@AAEXXZ 1000bf50 f i pipeline.obj
 0001:0000afb0       ?destroy_my_tls@input_buffer@internal@tbb@@QAEXXZ 1000bfb0 f i pipeline.obj
 0001:0000aff0       ??_Gsemaphore@internal@tbb@@QAEPAXI@Z 1000bff0 f i pipeline.obj
 0001:0000b020       ??1semaphore@internal@tbb@@QAE@XZ 1000c020 f i pipeline.obj
 0001:0000b040       ??0input_buffer@internal@tbb@@QAE@_N0@Z 1000c040 f i pipeline.obj
 0001:0000b0f0       ?create_sema@input_buffer@internal@tbb@@AAEXI@Z 1000c0f0 f i pipeline.obj
 0001:0000b1a0       ??0semaphore@internal@tbb@@QAE@I@Z 1000c1a0 f i pipeline.obj
 0001:0000b1d0       ?init_semaphore@semaphore@internal@tbb@@AAEXI@Z 1000c1d0 f i pipeline.obj
 0001:0000b200       ?create_my_tls@input_buffer@internal@tbb@@QAEXXZ 1000c200 f i pipeline.obj
 0001:0000b240       ?allocate_root@task@tbb@@SA?AVallocate_root_with_context_proxy@internal@2@AAVtask_group_context@2@@Z 1000c240 f i pipeline.obj
 0001:0000b260       ??0allocate_root_with_context_proxy@internal@tbb@@QAE@AAVtask_group_context@2@@Z 1000c260 f i pipeline.obj
 0001:0000b280       ?spawn_root_and_wait@task@tbb@@SAXAAV12@@Z 1000c280 f i pipeline.obj
 0001:0000b2c0       ??2@YAPAXIABVallocate_root_with_context_proxy@internal@tbb@@@Z 1000c2c0 f i pipeline.obj
 0001:0000b2e0       ??3@YAXPAXABVallocate_root_with_context_proxy@internal@tbb@@@Z 1000c2e0 f i pipeline.obj
 0001:0000b300       ??0pipeline_root_task@internal@tbb@@QAE@AAVpipeline@2@@Z 1000c300 f i pipeline.obj
 0001:0000b410       ?execute@pipeline_root_task@internal@tbb@@EAEPAVtask@3@XZ 1000c410 f i pipeline.obj
 0001:0000b6b0       ?allocate_child@task@tbb@@QAEAAVallocate_child_proxy@internal@2@XZ 1000c6b0 f i pipeline.obj
 0001:0000b6c0       ?set_ref_count@task@tbb@@QAEXH@Z 1000c6c0 f i pipeline.obj
 0001:0000b6e0       ??2@YAPAXIABVallocate_child_proxy@internal@tbb@@@Z 1000c6e0 f i pipeline.obj
 0001:0000b700       ??3@YAXPAXABVallocate_child_proxy@internal@tbb@@@Z 1000c700 f i pipeline.obj
 0001:0000b720       ??0stage_task@internal@tbb@@QAE@AAVpipeline@2@PAVfilter@2@ABUtask_info@12@@Z 1000c720 f i pipeline.obj
 0001:0000b780       ??_Epipeline_root_task@internal@tbb@@UAEPAXI@Z 1000c780 f i pipeline.obj
 0001:0000b780       ??_Gpipeline_root_task@internal@tbb@@UAEPAXI@Z 1000c780 f i pipeline.obj
 0001:0000b7b0       ??1pipeline_root_task@internal@tbb@@UAE@XZ 1000c7b0 f i pipeline.obj
 0001:0000b7d0       ??0pipeline_cleaner@internal@tbb@@QAE@AAVpipeline@2@@Z 1000c7d0 f i pipeline.obj
 0001:0000b7f0       ??1pipeline_cleaner@internal@tbb@@QAE@XZ 1000c7f0 f i pipeline.obj
 0001:0000b830       ??0task_group_context@tbb@@QAE@W4kind_type@01@I@Z 1000c830 f i pipeline.obj
 0001:0000b870       ?finalize@filter@tbb@@UAEXPAX@Z 1000c870 f i pipeline.obj
 0001:0000b880       ??_Efilter@tbb@@UAEPAXI@Z  1000c880 f i pipeline.obj
 0001:0000b880       ??_Gfilter@tbb@@UAEPAXI@Z  1000c880 f i pipeline.obj
 0001:0000b8b0       ?set_my_tls_end_of_input@input_buffer@internal@tbb@@QAEXXZ 1000c8b0 f i pipeline.obj
 0001:0000b8d0       ?sema_P@input_buffer@internal@tbb@@AAEXXZ 1000c8d0 f i pipeline.obj
 0001:0000b910       ?P@semaphore@internal@tbb@@QAEXXZ 1000c910 f i pipeline.obj
 0001:0000b930       ?has_item@input_buffer@internal@tbb@@QAE_NXZ 1000c930 f i pipeline.obj
 0001:0000b980       ??E?$atomic_impl_with_arithmetic@KKD@internal@tbb@@QAEKXZ 1000c980 f i pipeline.obj
 0001:0000b9a0       ??F?$atomic_impl_with_arithmetic@KKD@internal@tbb@@QAEKXZ 1000c9a0 f i pipeline.obj
 0001:0000b9c0       ??E?$atomic_impl_with_arithmetic@KKD@internal@tbb@@QAEKH@Z 1000c9c0 f i pipeline.obj
 0001:0000b9e0       ??F?$atomic_impl_with_arithmetic@KKD@internal@tbb@@QAEKH@Z 1000c9e0 f i pipeline.obj
 0001:0000ba00       ??B?$atomic_impl@K@internal@tbb@@QDEKXZ 1000ca00 f i pipeline.obj
 0001:0000ba20       ?store_with_release@?$atomic_impl@K@internal@tbb@@IAEKK@Z 1000ca20 f i pipeline.obj
 0001:0000ba50       ?create@?$basic_tls@H@internal@tbb@@QAEHXZ 1000ca50 f i pipeline.obj
 0001:0000ba80       ?destroy@?$basic_tls@H@internal@tbb@@QAEHXZ 1000ca80 f i pipeline.obj
 0001:0000bab0       ?set@?$basic_tls@H@internal@tbb@@QAEXH@Z 1000cab0 f i pipeline.obj
 0001:0000bad0       ?get@?$basic_tls@H@internal@tbb@@QAEHXZ 1000cad0 f i pipeline.obj
 0001:0000baf0       ??0?$cache_aligned_allocator@Utask_info@internal@tbb@@@tbb@@QAE@XZ 1000caf0 f i pipeline.obj
 0001:0000bb00       ?allocate@?$cache_aligned_allocator@Utask_info@internal@tbb@@@tbb@@QAEPAUtask_info@internal@2@IPBX@Z 1000cb00 f i pipeline.obj
 0001:0000bb20       ?deallocate@?$cache_aligned_allocator@Utask_info@internal@tbb@@@tbb@@QAEXPAUtask_info@internal@2@I@Z 1000cb20 f i pipeline.obj
 0001:0000bb40       ?fetch_and_add@?$atomic_impl_with_arithmetic@KKD@internal@tbb@@QAEKK@Z 1000cb40 f i pipeline.obj
 0001:0000bb60       ??$poison_pointer@Utask_info@internal@tbb@@@internal@tbb@@YAXAAPAUtask_info@01@@Z 1000cb60 f i pipeline.obj
 0001:0000bb70       ??$note_done@Vstage_task@internal@tbb@@@input_buffer@internal@tbb@@QAEXKAAVstage_task@12@@Z 1000cb70 f i pipeline.obj
 0001:0000bc60       ?spawn_stage_task@stage_task@internal@tbb@@QAEXABUtask_info@23@@Z 1000cc60 f i pipeline.obj
 0001:0000bd20       ??$fetch_and_add@$0A@@?$atomic_impl_with_arithmetic@KKD@internal@tbb@@QAEKK@Z 1000cd20 f i pipeline.obj
 0001:0000bd40       ?acquire@scoped_lock@queuing_mutex@tbb@@QAEXAAV23@@Z 1000cd40 f   queuing_mutex.obj
 0001:0000be30       ?try_acquire@scoped_lock@queuing_mutex@tbb@@QAE_NAAV23@@Z 1000ce30 f   queuing_mutex.obj
 0001:0000bec0       ?release@scoped_lock@queuing_mutex@tbb@@QAEXXZ 1000cec0 f   queuing_mutex.obj
 0001:0000bf80       ?internal_construct@queuing_mutex@tbb@@QAEXXZ 1000cf80 f   queuing_mutex.obj
 0001:0000c010       ?initialize@scoped_lock@queuing_mutex@tbb@@AAEXXZ 1000d010 f i queuing_mutex.obj
 0001:0000c040       ??$poison_pointer@Vscoped_lock@queuing_mutex@tbb@@@internal@tbb@@YAXAAPAVscoped_lock@queuing_mutex@1@@Z 1000d040 f i queuing_mutex.obj
 0001:0000c050       ??$fetch_and_store@$01@?$atomic_impl@PAVscoped_lock@queuing_mutex@tbb@@@internal@tbb@@QAEPAVscoped_lock@queuing_mutex@2@PAV342@@Z 1000d050 f i queuing_mutex.obj
 0001:0000c080       ??$spin_wait_while_eq@IK@internal@tbb@@YAXADIK@Z 1000d080 f i queuing_mutex.obj
 0001:0000c0b0       ??$__TBB_load_with_acquire@I@internal@tbb@@YAIADI@Z 1000d0b0 f i queuing_mutex.obj
 0001:0000c0d0       ??$compare_and_swap@$01@?$atomic_impl@PAVscoped_lock@queuing_mutex@tbb@@@internal@tbb@@QAEPAVscoped_lock@queuing_mutex@2@PAV342@0@Z 1000d0d0 f i queuing_mutex.obj
 0001:0000c110       ??$spin_wait_while_eq@PAVscoped_lock@queuing_mutex@tbb@@PAV123@@internal@tbb@@YAXADSAVscoped_lock@queuing_mutex@1@PAV231@@Z 1000d110 f i queuing_mutex.obj
 0001:0000c140       ??$__TBB_store_with_release@IH@internal@tbb@@YAXACIH@Z 1000d140 f i queuing_mutex.obj
 0001:0000c160       ?store_with_release@?$machine_load_store@I$03@internal@tbb@@SAXACII@Z 1000d160 f i queuing_mutex.obj
 0001:0000c170       ?load_with_acquire@?$machine_load_store@I$03@internal@tbb@@SAIADI@Z 1000d170 f i queuing_mutex.obj
 0001:0000c190       ?compare_and_swap@?$atomic_traits@$03$01@internal@tbb@@SAHPCXHH@Z 1000d190 f i queuing_mutex.obj
 0001:0000c1b0       ?fetch_and_store@?$atomic_traits@$03$01@internal@tbb@@SAHPCXH@Z 1000d1b0 f i queuing_mutex.obj
 0001:0000c1d0       ?acquire@scoped_lock@queuing_rw_mutex@tbb@@QAEXAAV23@_N@Z 1000d1d0 f   queuing_rw_mutex.obj
 0001:0000c540       ?try_acquire@scoped_lock@queuing_rw_mutex@tbb@@QAE_NAAV23@_N@Z 1000d540 f   queuing_rw_mutex.obj
 0001:0000c630       ?release@scoped_lock@queuing_rw_mutex@tbb@@QAEXXZ 1000d630 f   queuing_rw_mutex.obj
 0001:0000cac0       ?downgrade_to_reader@scoped_lock@queuing_rw_mutex@tbb@@QAE_NXZ 1000dac0 f   queuing_rw_mutex.obj
 0001:0000cc10       ?upgrade_to_writer@scoped_lock@queuing_rw_mutex@tbb@@QAE_NXZ 1000dc10 f   queuing_rw_mutex.obj
 0001:0000d170       ?internal_construct@queuing_rw_mutex@tbb@@QAEXXZ 1000e170 f   queuing_rw_mutex.obj
 0001:0000d240       ??4?$atomic@E@tbb@@QAEEE@Z 1000e240 f i queuing_rw_mutex.obj
 0001:0000d260       ?initialize@scoped_lock@queuing_rw_mutex@tbb@@AAEXXZ 1000e260 f i queuing_rw_mutex.obj
 0001:0000d2b0       ?try_acquire_internal_lock@scoped_lock@queuing_rw_mutex@tbb@@AAE_NXZ 1000e2b0 f i queuing_rw_mutex.obj
 0001:0000d2e0       ?acquire_internal_lock@scoped_lock@queuing_rw_mutex@tbb@@AAEXXZ 1000e2e0 f i queuing_rw_mutex.obj
 0001:0000d310       ?release_internal_lock@scoped_lock@queuing_rw_mutex@tbb@@AAEXXZ 1000e310 f i queuing_rw_mutex.obj
 0001:0000d330       ?unblock_or_wait_on_internal_lock@scoped_lock@queuing_rw_mutex@tbb@@AAEXI@Z 1000e330 f i queuing_rw_mutex.obj
 0001:0000d360       ?wait_for_release_of_internal_lock@scoped_lock@queuing_rw_mutex@tbb@@AAEXXZ 1000e360 f i queuing_rw_mutex.obj
 0001:0000d380       ?get_flag@tbb@@YAIPAVscoped_lock@queuing_rw_mutex@1@@Z 1000e380 f i queuing_rw_mutex.obj
 0001:0000d390       ??B?$atomic_impl@E@internal@tbb@@QDEEXZ 1000e390 f i queuing_rw_mutex.obj
 0001:0000d3b0       ?store_with_release@?$atomic_impl@E@internal@tbb@@IAEEE@Z 1000e3b0 f i queuing_rw_mutex.obj
 0001:0000d3e0       ??B?$atomic_impl@PAVscoped_lock@queuing_rw_mutex@tbb@@@internal@tbb@@QDEPAVscoped_lock@queuing_rw_mutex@2@XZ 1000e3e0 f i queuing_rw_mutex.obj
 0001:0000d400       ??0?$tricky_atomic_pointer@Vscoped_lock@queuing_rw_mutex@tbb@@@tbb@@QAE@AAPAVscoped_lock@queuing_rw_mutex@1@@Z 1000e400 f i queuing_rw_mutex.obj
 0001:0000d420       ??I?$tricky_atomic_pointer@Vscoped_lock@queuing_rw_mutex@tbb@@@tbb@@QBEPAVscoped_lock@queuing_rw_mutex@1@H@Z 1000e420 f i queuing_rw_mutex.obj
 0001:0000d440       ??U?$tricky_atomic_pointer@Vscoped_lock@queuing_rw_mutex@tbb@@@tbb@@QBEPAVscoped_lock@queuing_rw_mutex@1@H@Z 1000e440 f i queuing_rw_mutex.obj
 0001:0000d460       ??$poison_pointer@Vscoped_lock@queuing_rw_mutex@tbb@@@internal@tbb@@YAXAAPAVscoped_lock@queuing_rw_mutex@1@@Z 1000e460 f i queuing_rw_mutex.obj
 0001:0000d470       ??$as_atomic@E@internal@tbb@@YAAAU?$atomic@E@1@AAE@Z 1000e470 f i queuing_rw_mutex.obj
 0001:0000d480       ??$compare_and_swap@$00@?$atomic_impl@E@internal@tbb@@QAEEEE@Z 1000e480 f i queuing_rw_mutex.obj
 0001:0000d4c0       ??$__TBB_store_with_release@EE@internal@tbb@@YAXACEE@Z 1000e4c0 f i queuing_rw_mutex.obj
 0001:0000d4e0       ??$spin_wait_until_eq@EE@internal@tbb@@YAXADEE@Z 1000e4e0 f i queuing_rw_mutex.obj
 0001:0000d510       ??$__TBB_store_relaxed@PAVscoped_lock@queuing_rw_mutex@tbb@@PAV123@@internal@tbb@@YAXACRAVscoped_lock@queuing_rw_mutex@1@PAV231@@Z 1000e510 f i queuing_rw_mutex.obj
 0001:0000d530       ??$__TBB_store_relaxed@EH@internal@tbb@@YAXACEH@Z 1000e530 f i queuing_rw_mutex.obj
 0001:0000d550       ??$fetch_and_store@$01@?$atomic_impl@PAVscoped_lock@queuing_rw_mutex@tbb@@@internal@tbb@@QAEPAVscoped_lock@queuing_rw_mutex@2@PAV342@@Z 1000e550 f i queuing_rw_mutex.obj
 0001:0000d580       ??$__TBB_load_relaxed@PAVscoped_lock@queuing_rw_mutex@tbb@@@internal@tbb@@YAPAVscoped_lock@queuing_rw_mutex@1@ADSAV231@@Z 1000e580 f i queuing_rw_mutex.obj
 0001:0000d5a0       ??$__TBB_store_with_release@PAVscoped_lock@queuing_rw_mutex@tbb@@PAV123@@internal@tbb@@YAXACRAVscoped_lock@queuing_rw_mutex@1@PAV231@@Z 1000e5a0 f i queuing_rw_mutex.obj
 0001:0000d5c0       ??$spin_wait_until_eq@EH@internal@tbb@@YAXADEH@Z 1000e5c0 f i queuing_rw_mutex.obj
 0001:0000d5f0       ??$spin_wait_while_eq@PAVscoped_lock@queuing_rw_mutex@tbb@@PAV123@@internal@tbb@@YAXADSAVscoped_lock@queuing_rw_mutex@1@PAV231@@Z 1000e5f0 f i queuing_rw_mutex.obj
 0001:0000d620       ??$__TBB_store_with_release@EH@internal@tbb@@YAXACEH@Z 1000e620 f i queuing_rw_mutex.obj
 0001:0000d640       ??$__TBB_load_with_acquire@E@internal@tbb@@YAEADE@Z 1000e640 f i queuing_rw_mutex.obj
 0001:0000d660       ??$load@$02PAVscoped_lock@queuing_rw_mutex@tbb@@@tbb@@YAPAVscoped_lock@queuing_rw_mutex@0@ABU?$atomic@PAVscoped_lock@queuing_rw_mutex@tbb@@@0@@Z 1000e660 f i queuing_rw_mutex.obj
 0001:0000d670       ??$compare_and_swap@$01@?$atomic_impl@PAVscoped_lock@queuing_rw_mutex@tbb@@@internal@tbb@@QAEPAVscoped_lock@queuing_rw_mutex@2@PAV342@0@Z 1000e670 f i queuing_rw_mutex.obj
 0001:0000d6b0       ??$__TBB_load_with_acquire@PAVscoped_lock@queuing_rw_mutex@tbb@@@internal@tbb@@YAPAVscoped_lock@queuing_rw_mutex@1@ADSAV231@@Z 1000e6b0 f i queuing_rw_mutex.obj
 0001:0000d6d0       ??$fetch_and_store@$01@?$tricky_atomic_pointer@Vscoped_lock@queuing_rw_mutex@tbb@@@tbb@@SAPAVscoped_lock@queuing_rw_mutex@1@PCRAV231@PAV231@@Z 1000e6d0 f i queuing_rw_mutex.obj
 0001:0000d6f0       ??$fetch_and_add@$00@?$tricky_atomic_pointer@Vscoped_lock@queuing_rw_mutex@tbb@@@tbb@@SAPAVscoped_lock@queuing_rw_mutex@1@PCRAV231@H@Z 1000e6f0 f i queuing_rw_mutex.obj
 0001:0000d710       ??$compare_and_swap@$01@?$tricky_atomic_pointer@Vscoped_lock@queuing_rw_mutex@tbb@@@tbb@@SAPAVscoped_lock@queuing_rw_mutex@1@PCRAV231@PAV231@1@Z 1000e710 f i queuing_rw_mutex.obj
 0001:0000d730       ??$spin_wait_while_eq@PAVscoped_lock@queuing_rw_mutex@tbb@@PAX@internal@tbb@@YAXADSAVscoped_lock@queuing_rw_mutex@1@PAX@Z 1000e730 f i queuing_rw_mutex.obj
 0001:0000d760       ??$spin_wait_while_eq@EH@internal@tbb@@YAXADEH@Z 1000e760 f i queuing_rw_mutex.obj
 0001:0000d790       ??$compare_and_swap@$01@?$atomic_impl@E@internal@tbb@@QAEEEE@Z 1000e790 f i queuing_rw_mutex.obj
 0001:0000d7d0       ?compare_and_swap@?$atomic_traits@$00$00@internal@tbb@@SACPCXCC@Z 1000e7d0 f i queuing_rw_mutex.obj
 0001:0000d7f0       ?load_with_acquire@?$machine_load_store@E$00@internal@tbb@@SAEADE@Z 1000e7f0 f i queuing_rw_mutex.obj
 0001:0000d810       ?store_with_release@?$machine_load_store@E$00@internal@tbb@@SAXACEE@Z 1000e810 f i queuing_rw_mutex.obj
 0001:0000d820       ?load@?$machine_load_store_relaxed@PAVscoped_lock@queuing_rw_mutex@tbb@@$03@internal@tbb@@SAPAVscoped_lock@queuing_rw_mutex@3@ADSAV453@@Z 1000e820 f i queuing_rw_mutex.obj
 0001:0000d830       ?store@?$machine_load_store_relaxed@PAVscoped_lock@queuing_rw_mutex@tbb@@$03@internal@tbb@@SAXACRAVscoped_lock@queuing_rw_mutex@3@PAV453@@Z 1000e830 f i queuing_rw_mutex.obj
 0001:0000d840       ?store@?$machine_load_store_relaxed@E$00@internal@tbb@@SAXACEE@Z 1000e840 f i queuing_rw_mutex.obj
 0001:0000d850       ?load_with_acquire@?$machine_load_store@PAVscoped_lock@queuing_rw_mutex@tbb@@$03@internal@tbb@@SAPAVscoped_lock@queuing_rw_mutex@3@ADSAV453@@Z 1000e850 f i queuing_rw_mutex.obj
 0001:0000d870       ?store_with_release@?$machine_load_store@PAVscoped_lock@queuing_rw_mutex@tbb@@$03@internal@tbb@@SAXACRAVscoped_lock@queuing_rw_mutex@3@PAV453@@Z 1000e870 f i queuing_rw_mutex.obj
 0001:0000d880       ?fetch_and_add@?$atomic_traits@$03$00@internal@tbb@@SAHPCXH@Z 1000e880 f i queuing_rw_mutex.obj
 0001:0000d8a0       ?compare_and_swap@?$atomic_traits@$00$01@internal@tbb@@SACPCXCC@Z 1000e8a0 f i queuing_rw_mutex.obj
 0001:0000d8c0       ??$load@$02@?$atomic_impl@PAVscoped_lock@queuing_rw_mutex@tbb@@@internal@tbb@@QBEPAVscoped_lock@queuing_rw_mutex@2@XZ 1000e8c0 f i queuing_rw_mutex.obj
 0001:0000d8e0       ??$load@H@?$atomic_load_store_traits@$02@internal@tbb@@SAHADH@Z 1000e8e0 f i queuing_rw_mutex.obj
 0001:0000d900       ??$__TBB_load_relaxed@H@internal@tbb@@YAHADH@Z 1000e900 f i queuing_rw_mutex.obj
 0001:0000d920       ?load@?$machine_load_store_relaxed@H$03@internal@tbb@@SAHADH@Z 1000e920 f i queuing_rw_mutex.obj
 0001:0000d930       ?internal_construct@reader_writer_lock@interface5@tbb@@AAEXXZ 1000e930 f   reader_writer_lock.obj
 0001:0000d9b0       ?internal_destroy@reader_writer_lock@interface5@tbb@@AAEXXZ 1000e9b0 f   reader_writer_lock.obj
 0001:0000da60       ?lock@reader_writer_lock@interface5@tbb@@QAEXXZ 1000ea60 f   reader_writer_lock.obj
 0001:0000db00       ?try_lock@reader_writer_lock@interface5@tbb@@QAE_NXZ 1000eb00 f   reader_writer_lock.obj
 0001:0000dbb0       ?start_write@reader_writer_lock@interface5@tbb@@AAE_NPAVscoped_lock@123@@Z 1000ebb0 f   reader_writer_lock.obj
 0001:0000dd70       ?set_next_writer@reader_writer_lock@interface5@tbb@@AAEXPAVscoped_lock@123@@Z 1000ed70 f   reader_writer_lock.obj
 0001:0000de40       ?lock_read@reader_writer_lock@interface5@tbb@@QAEXXZ 1000ee40 f   reader_writer_lock.obj
 0001:0000dec0       ?try_lock_read@reader_writer_lock@interface5@tbb@@QAE_NXZ 1000eec0 f   reader_writer_lock.obj
 0001:0000df20       ?start_read@reader_writer_lock@interface5@tbb@@AAEXPAVscoped_lock_read@123@@Z 1000ef20 f   reader_writer_lock.obj
 0001:0000e040       ?unblock_readers@reader_writer_lock@interface5@tbb@@AAEXXZ 1000f040 f   reader_writer_lock.obj
 0001:0000e150       ?unlock@reader_writer_lock@interface5@tbb@@QAEXXZ 1000f150 f   reader_writer_lock.obj
 0001:0000e290       ?end_write@reader_writer_lock@interface5@tbb@@AAEXPAVscoped_lock@123@@Z 1000f290 f   reader_writer_lock.obj
 0001:0000e3e0       ?end_read@reader_writer_lock@interface5@tbb@@AAEXXZ 1000f3e0 f   reader_writer_lock.obj
 0001:0000e440       ?internal_construct@scoped_lock@reader_writer_lock@interface5@tbb@@AAEXAAV234@@Z 1000f440 f   reader_writer_lock.obj
 0001:0000e4a0       ?internal_construct@scoped_lock_read@reader_writer_lock@interface5@tbb@@AAEXAAV234@@Z 1000f4a0 f   reader_writer_lock.obj
 0001:0000e500       ?internal_destroy@scoped_lock@reader_writer_lock@interface5@tbb@@AAEXXZ 1000f500 f   reader_writer_lock.obj
 0001:0000e560       ?internal_destroy@scoped_lock_read@reader_writer_lock@interface5@tbb@@AAEXXZ 1000f560 f   reader_writer_lock.obj
 0001:0000e600       ??0id@tbb_thread_v3@internal@tbb@@QAE@XZ 1000f600 f i reader_writer_lock.obj
 0001:0000e620       ??2scoped_lock@reader_writer_lock@interface5@tbb@@SAPAXI@Z 1000f620 f i reader_writer_lock.obj
 0001:0000e640       ??3scoped_lock@reader_writer_lock@interface5@tbb@@SAXPAX@Z 1000f640 f i reader_writer_lock.obj
 0001:0000e660       ?get_id@this_tbb_thread@tbb@@YA?AVid@tbb_thread_v3@internal@2@XZ 1000f660 f i reader_writer_lock.obj
 0001:0000e680       ??_Gscoped_lock@reader_writer_lock@interface5@tbb@@QAEPAXI@Z 1000f680 f i reader_writer_lock.obj
 0001:0000e6b0       ??1scoped_lock@reader_writer_lock@interface5@tbb@@QAE@XZ 1000f6b0 f i reader_writer_lock.obj
 0001:0000e6d0       ?fetch_and_or@interface5@tbb@@YAIAAU?$atomic@I@2@I@Z 1000f6d0 f i reader_writer_lock.obj
 0001:0000e720       ??1scoped_lock_read@reader_writer_lock@interface5@tbb@@QAE@XZ 1000f720 f i reader_writer_lock.obj
 0001:0000e740       ??9internal@tbb@@YA_NVid@tbb_thread_v3@01@0@Z 1000f740 f i reader_writer_lock.obj
 0001:0000e760       ?fetch_and_and@interface5@tbb@@YAIAAU?$atomic@I@2@I@Z 1000f760 f i reader_writer_lock.obj
 0001:0000e7b0       ?is_current_writer@reader_writer_lock@interface5@tbb@@AAE_NXZ 1000f7b0 f i reader_writer_lock.obj
 0001:0000e7e0       ??8internal@tbb@@YA_NVid@tbb_thread_v3@01@0@Z 1000f7e0 f i reader_writer_lock.obj
 0001:0000e800       ??0scoped_lock@reader_writer_lock@interface5@tbb@@AAE@XZ 1000f800 f i reader_writer_lock.obj
 0001:0000e840       ??0scoped_lock_read@reader_writer_lock@interface5@tbb@@AAE@XZ 1000f840 f i reader_writer_lock.obj
 0001:0000e880       ??Z?$atomic_impl_with_arithmetic@IID@internal@tbb@@QAEII@Z 1000f880 f i reader_writer_lock.obj
 0001:0000e8a0       ??4?$atomic@W4status_t@reader_writer_lock@interface5@tbb@@@tbb@@QAE?AW4status_t@reader_writer_lock@interface5@1@W42341@@Z 1000f8a0 f i reader_writer_lock.obj
 0001:0000e8c0       ??B?$atomic_impl@W4status_t@reader_writer_lock@interface5@tbb@@@internal@tbb@@QDE?AW4status_t@reader_writer_lock@interface5@2@XZ 1000f8c0 f i reader_writer_lock.obj
 0001:0000e8e0       ??4?$atomic@PAVscoped_lock_read@reader_writer_lock@interface5@tbb@@@tbb@@QAEPAVscoped_lock_read@reader_writer_lock@interface5@1@PAV2341@@Z 1000f8e0 f i reader_writer_lock.obj
 0001:0000e900       ?fetch_and_store@?$atomic_impl@PAVscoped_lock_read@reader_writer_lock@interface5@tbb@@@internal@tbb@@QAEPAVscoped_lock_read@reader_writer_lock@interface5@3@PAV4563@@Z 1000f900 f i reader_writer_lock.obj
 0001:0000e920       ??B?$atomic_impl@PAVscoped_lock_read@reader_writer_lock@interface5@tbb@@@internal@tbb@@QDEPAVscoped_lock_read@reader_writer_lock@interface5@2@XZ 1000f920 f i reader_writer_lock.obj
 0001:0000e940       ??4?$atomic@PAVscoped_lock@reader_writer_lock@interface5@tbb@@@tbb@@QAEPAVscoped_lock@reader_writer_lock@interface5@1@PAV2341@@Z 1000f940 f i reader_writer_lock.obj
 0001:0000e960       ??C?$atomic@PAVscoped_lock@reader_writer_lock@interface5@tbb@@@tbb@@QBEPAVscoped_lock@reader_writer_lock@interface5@1@XZ 1000f960 f i reader_writer_lock.obj
 0001:0000e980       ?fetch_and_store@?$atomic_impl@PAVscoped_lock@reader_writer_lock@interface5@tbb@@@internal@tbb@@QAEPAVscoped_lock@reader_writer_lock@interface5@3@PAV4563@@Z 1000f980 f i reader_writer_lock.obj
 0001:0000e9a0       ?compare_and_swap@?$atomic_impl@PAVscoped_lock@reader_writer_lock@interface5@tbb@@@internal@tbb@@QAEPAVscoped_lock@reader_writer_lock@interface5@3@PAV4563@0@Z 1000f9a0 f i reader_writer_lock.obj
 0001:0000e9c0       ??B?$atomic_impl@PAVscoped_lock@reader_writer_lock@interface5@tbb@@@internal@tbb@@QDEPAVscoped_lock@reader_writer_lock@interface5@2@XZ 1000f9c0 f i reader_writer_lock.obj
 0001:0000e9e0       ?store_with_release@?$atomic_impl@W4status_t@reader_writer_lock@interface5@tbb@@@internal@tbb@@IAE?AW4status_t@reader_writer_lock@interface5@3@W44563@@Z 1000f9e0 f i reader_writer_lock.obj
 0001:0000ea10       ?store_with_release@?$atomic_impl@PAVscoped_lock_read@reader_writer_lock@interface5@tbb@@@internal@tbb@@IAEPAVscoped_lock_read@reader_writer_lock@interface5@3@PAV4563@@Z 1000fa10 f i reader_writer_lock.obj
 0001:0000ea40       ?store_with_release@?$atomic_impl@PAVscoped_lock@reader_writer_lock@interface5@tbb@@@internal@tbb@@IAEPAVscoped_lock@reader_writer_lock@interface5@3@PAV4563@@Z 1000fa40 f i reader_writer_lock.obj
 0001:0000ea70       ??$spin_wait_while_eq@PAVscoped_lock@reader_writer_lock@interface5@tbb@@PAV1234@@internal@tbb@@YAXADSAVscoped_lock@reader_writer_lock@interface5@1@PAV2341@@Z 1000fa70 f i reader_writer_lock.obj
 0001:0000eaa0       ??$spin_wait_while_eq@U?$atomic@W4status_t@reader_writer_lock@interface5@tbb@@@tbb@@W4status_t@reader_writer_lock@interface5@2@@internal@tbb@@YAXADU?$atomic@W4status_t@reader_writer_lock@interface5@tbb@@@1@W4status_t@reader_writer_lock@interface5@1@@Z 1000faa0 f i reader_writer_lock.obj
 0001:0000ead0       ??$spin_wait_until_and@U?$atomic@I@tbb@@I@interface5@tbb@@YAXADU?$atomic@I@1@I@Z 1000fad0 f i reader_writer_lock.obj
 0001:0000eb00       ??$spin_wait_while_geq@U?$atomic@I@tbb@@I@interface5@tbb@@YAXADU?$atomic@I@1@I@Z 1000fb00 f i reader_writer_lock.obj
 0001:0000eb30       ??$fetch_and_store@$0A@@?$atomic_impl@PAVscoped_lock_read@reader_writer_lock@interface5@tbb@@@internal@tbb@@QAEPAVscoped_lock_read@reader_writer_lock@interface5@2@PAV3452@@Z 1000fb30 f i reader_writer_lock.obj
 0001:0000eb60       ??$fetch_and_store@$0A@@?$atomic_impl@PAVscoped_lock@reader_writer_lock@interface5@tbb@@@internal@tbb@@QAEPAVscoped_lock@reader_writer_lock@interface5@2@PAV3452@@Z 1000fb60 f i reader_writer_lock.obj
 0001:0000eb90       ??$compare_and_swap@$0A@@?$atomic_impl@PAVscoped_lock@reader_writer_lock@interface5@tbb@@@internal@tbb@@QAEPAVscoped_lock@reader_writer_lock@interface5@2@PAV3452@0@Z 1000fb90 f i reader_writer_lock.obj
 0001:0000ebd0       ?internal_acquire_writer@spin_rw_mutex_v3@tbb@@AAE_NXZ 1000fbd0 f   spin_rw_mutex.obj
 0001:0000ec90       ?internal_release_writer@spin_rw_mutex_v3@tbb@@AAEXXZ 1000fc90 f   spin_rw_mutex.obj
 0001:0000ece0       ?internal_acquire_reader@spin_rw_mutex_v3@tbb@@AAEXXZ 1000fce0 f   spin_rw_mutex.obj
 0001:0000edb0       ?internal_upgrade@spin_rw_mutex_v3@tbb@@AAE_NXZ 1000fdb0 f   spin_rw_mutex.obj
 0001:0000eed0       ?internal_downgrade@spin_rw_mutex_v3@tbb@@AAEXXZ 1000fed0 f   spin_rw_mutex.obj
 0001:0000ef30       ?internal_release_reader@spin_rw_mutex_v3@tbb@@AAEXXZ 1000ff30 f   spin_rw_mutex.obj
 0001:0000ef90       ?internal_try_acquire_writer@spin_rw_mutex_v3@tbb@@AAE_NXZ 1000ff90 f   spin_rw_mutex.obj
 0001:0000eff0       ?internal_try_acquire_reader@spin_rw_mutex_v3@tbb@@AAE_NXZ 1000fff0 f   spin_rw_mutex.obj
 0001:0000f060       ?internal_construct@spin_rw_mutex_v3@tbb@@AAEXXZ 10010060 f   spin_rw_mutex.obj
 0001:0000f0e0       ?reset@atomic_backoff@internal@tbb@@QAEXXZ 100100e0 f i spin_rw_mutex.obj
 0001:0000f100       ?internal_acquire@scoped_lock@spin_mutex@tbb@@AAEXAAV23@@Z 10010100 f   spin_mutex.obj
 0001:0000f1c0       ?internal_release@scoped_lock@spin_mutex@tbb@@AAEXXZ 100101c0 f   spin_mutex.obj
 0001:0000f250       ?internal_try_acquire@scoped_lock@spin_mutex@tbb@@AAE_NAAV23@@Z 10010250 f   spin_mutex.obj
 0001:0000f2d0       ?internal_construct@spin_mutex@tbb@@QAEXXZ 100102d0 f   spin_mutex.obj
 0001:0000f300       ?__TBB_LockByte@@YAEAAE@Z  10010300 f i spin_mutex.obj
 0001:0000f340       ?__TBB_TryLockByte@@YA_NAAE@Z 10010340 f i spin_mutex.obj
 0001:0000f360       ?internal_construct@critical_section_v4@internal@tbb@@QAEXXZ 10010360 f   critical_section.obj
 0001:0000f390       ??_E?$padded@U?$queue_and_mutex@PAVtask@tbb@@Vspin_mutex@2@@internal@tbb@@@internal@tbb@@QAEPAXI@Z 10010390 f i task.obj
 0001:0000f400       ??1?$padded@U?$queue_and_mutex@PAVtask@tbb@@Vspin_mutex@2@@internal@tbb@@@internal@tbb@@QAE@XZ 10010400 f i task.obj
 0001:0000f420       ??1?$padded_base@U?$queue_and_mutex@PAVtask@tbb@@Vspin_mutex@2@@internal@tbb@@$0BM@@internal@tbb@@QAE@XZ 10010420 f i task.obj
 0001:0000f440       ?allocate@allocate_root_proxy@internal@tbb@@SAAAVtask@3@I@Z 10010440 f   task.obj
 0001:0000f4c0       ?free@allocate_root_proxy@internal@tbb@@SAXAAVtask@3@@Z 100104c0 f   task.obj
 0001:0000f500       ?allocate@allocate_root_with_context_proxy@internal@tbb@@QBEAAVtask@3@I@Z 10010500 f   task.obj
 0001:0000f5b0       ?free@allocate_root_with_context_proxy@internal@tbb@@QBEXAAVtask@3@@Z 100105b0 f   task.obj
 0001:0000f600       ?allocate@allocate_continuation_proxy@internal@tbb@@QBEAAVtask@3@I@Z 10010600 f   task.obj
 0001:0000f670       ?free@allocate_continuation_proxy@internal@tbb@@QBEXAAVtask@3@@Z 10010670 f   task.obj
 0001:0000f6b0       ?allocate@allocate_child_proxy@internal@tbb@@QBEAAVtask@3@I@Z 100106b0 f   task.obj
 0001:0000f700       ?free@allocate_child_proxy@internal@tbb@@QBEXAAVtask@3@@Z 10010700 f   task.obj
 0001:0000f720       ?allocate@allocate_additional_child_of_proxy@internal@tbb@@QBEAAVtask@3@I@Z 10010720 f   task.obj
 0001:0000f790       ?free@allocate_additional_child_of_proxy@internal@tbb@@QBEXAAVtask@3@@Z 10010790 f   task.obj
 0001:0000f7c0       ?get_initial_auto_partitioner_divisor@internal@tbb@@YAIXZ 100107c0 f   task.obj
 0001:0000f7e0       ?resize@affinity_partitioner_base_v3@internal@tbb@@AAEXI@Z 100107e0 f   task.obj
 0001:0000f890       ?internal_set_ref_count@task@tbb@@AAEXH@Z 10010890 f   task.obj
 0001:0000f950       ?internal_decrement_ref_count@task@tbb@@AAEHXZ 10010950 f   task.obj
 0001:0000f9f0       ?self@task@tbb@@SAAAV12@XZ 100109f0 f   task.obj
 0001:0000fa40       ?is_owned_by_current_thread@task@tbb@@QBE_NXZ 10010a40 f   task.obj
 0001:0000fa50       ?destroy@task_base@internal@interface5@tbb@@SAXAAVtask@4@@Z 10010a50 f   task.obj
 0001:0000fb20       ?spawn_and_wait_for_all@task@tbb@@QAEXAAVtask_list@2@@Z 10010b20 f   task.obj
 0001:0000fba0       ?note_affinity@task@tbb@@UAEXG@Z 10010ba0 f   task.obj
 0001:0000fbb0       ?change_group@task@tbb@@QAEXAAVtask_group_context@2@@Z 10010bb0 f   task.obj
 0001:0000fc30       ?prefix@task@tbb@@QBEAAVtask_prefix@internal@2@PAUversion_tag_v3@42@@Z 10010c30 f i task.obj
 0001:0000fc50       ?local_scheduler@governor@internal@tbb@@SAPAVgeneric_scheduler@23@XZ 10010c50 f i task.obj
 0001:0000fc90       ?assert_task_valid@internal@tbb@@YAXABVtask@2@@Z 10010c90 f i task.obj
 0001:0000fd40       ?state@task@tbb@@QBE?AW4state_type@12@XZ 10010d40 f i task.obj
 0001:0000fd60       ?increment_ref_count@task@tbb@@QAEXXZ 10010d60 f i task.obj
 0001:0000fd90       ?max_number_of_workers@governor@internal@tbb@@SAIXZ 10010d90 f i task.obj
 0001:0000fdb0       ?number_of_workers_in_my_arena@generic_scheduler@internal@tbb@@QAEIXZ 10010db0 f i task.obj
 0001:0000fdd0       ?assert_task_pool_valid@generic_scheduler@internal@tbb@@IBEXXZ 10010dd0 f i task.obj
 0001:0000fde0       ?clear@task_list@tbb@@QAEXXZ 10010de0 f i task.obj
 0001:0000fe00       ?get@?$basic_tls@PAVgeneric_scheduler@internal@tbb@@@internal@tbb@@QAEPAVgeneric_scheduler@23@XZ 10010e00 f i task.obj
 0001:0000fe20       ??1?$queue_and_mutex@PAVtask@tbb@@Vspin_mutex@2@@internal@tbb@@QAE@XZ 10010e20 f i task.obj
 0001:0000fe40       ??1?$deque@PAVtask@tbb@@V?$tbb_allocator@PAVtask@tbb@@@2@@std@@QAE@XZ 10010e40 f i task.obj
 0001:0000fea0       ?_Tidy@?$deque@PAVtask@tbb@@V?$tbb_allocator@PAVtask@tbb@@@2@@std@@IAEXXZ 10010ea0 f i task.obj
 0001:0000ff60       ?empty@?$deque@PAVtask@tbb@@V?$tbb_allocator@PAVtask@tbb@@@2@@std@@QBE_NXZ 10010f60 f i task.obj
 0001:0000ff80       ?pop_back@?$deque@PAVtask@tbb@@V?$tbb_allocator@PAVtask@tbb@@@2@@std@@QAEXXZ 10010f80 f i task.obj
 0001:00010060       ?_Orphan_off@?$deque@PAVtask@tbb@@V?$tbb_allocator@PAVtask@tbb@@@2@@std@@IBEXI@Z 10011060 f i task.obj
 0001:00010160       ?_Clrcont@_Iterator_base12@std@@QAEXXZ 10011160 f i task.obj
 0001:00010180       ?_Getpnext@_Iterator_base12@std@@QAEPAPAU12@XZ 10011180 f i task.obj
 0001:000101a0       ??1?$_Deque_val@PAVtask@tbb@@V?$tbb_allocator@PAVtask@tbb@@@2@@std@@QAE@XZ 100111a0 f i task.obj
 0001:00010240       ?deallocate@?$tbb_allocator@PAVtask@tbb@@@tbb@@QAEXPAPAVtask@2@I@Z 10011240 f i task.obj
 0001:00010260       ?deallocate@?$tbb_allocator@PAPAVtask@tbb@@@tbb@@QAEXPAPAPAVtask@2@I@Z 10011260 f i task.obj
 0001:00010280       ?deallocate@?$tbb_allocator@U_Container_proxy@std@@@tbb@@QAEXPAU_Container_proxy@std@@I@Z 10011280 f i task.obj
 0001:000102a0       ??$is_poisoned@$$CBVtask@tbb@@@internal@tbb@@YA_NPBVtask@1@@Z 100112a0 f i task.obj
 0001:000102b0       ??$free_task@$00@generic_scheduler@internal@tbb@@QAEXAAVtask@2@@Z 100112b0 f i task.obj
 0001:000103c0       ?deallocate_task@generic_scheduler@internal@tbb@@QAEXAAVtask@3@@Z 100113c0 f i task.obj
 0001:00010420       ??$poison_pointer@Vscheduler@internal@tbb@@@internal@tbb@@YAXAAPAVscheduler@01@@Z 10011420 f i task.obj
 0001:00010430       ??$poison_pointer@Vtask@tbb@@@internal@tbb@@YAXAAPAVtask@1@@Z 10011430 f i task.obj
 0001:00010440       ??$free_task@$0A@@generic_scheduler@internal@tbb@@QAEXAAVtask@2@@Z 10011440 f i task.obj
 0001:00010560       ??$_Dest_val@V?$tbb_allocator@PAVtask@tbb@@@tbb@@PAVtask@2@@std@@YAXAAV?$tbb_allocator@PAVtask@tbb@@@tbb@@PAPAVtask@2@@Z 10011560 f i task.obj
 0001:00010580       ??$_Dest_val@V?$tbb_allocator@PAPAVtask@tbb@@@tbb@@PAPAVtask@2@@std@@YAXAAV?$tbb_allocator@PAPAVtask@tbb@@@tbb@@PAPAPAVtask@2@@Z 10011580 f i task.obj
 0001:000105a0       ??$?0PAVtask@tbb@@@?$tbb_allocator@U_Container_proxy@std@@@tbb@@QAE@ABV?$tbb_allocator@PAVtask@tbb@@@1@@Z 100115a0 f i task.obj
 0001:000105b0       ??$_Dest_val@V?$tbb_allocator@U_Container_proxy@std@@@tbb@@U_Container_proxy@std@@@std@@YAXAAV?$tbb_allocator@U_Container_proxy@std@@@tbb@@PAU_Container_proxy@0@@Z 100115b0 f i task.obj
 0001:000105d0       ?destroy@?$tbb_allocator@PAVtask@tbb@@@tbb@@QAEXPAPAVtask@2@@Z 100115d0 f i task.obj
 0001:000105e0       ?destroy@?$tbb_allocator@PAPAVtask@tbb@@@tbb@@QAEXPAPAPAVtask@2@@Z 100115e0 f i task.obj
 0001:000105f0       ?destroy@?$tbb_allocator@U_Container_proxy@std@@@tbb@@QAEXPAU_Container_proxy@std@@@Z 100115f0 f i task.obj
 0001:00010600       ??$poison_value@H@internal@tbb@@YAXAAH@Z 10011600 f i task.obj
 0001:00010620       ??$punned_cast@PAH$$CBI@internal@tbb@@YAPAHPBI@Z 10011620 f i task.obj
 0001:00010640       ?set_assertion_handler@tbb@@YAP6AXPBDH00@ZP6AX0H00@Z@Z 10011640 f   tbb_misc.obj
 0001:00010660       ?assertion_failure@tbb@@YAXPBDH00@Z 10011660 f   tbb_misc.obj
 0001:00010730       ?runtime_warning@internal@tbb@@YAXPBDZZ 10011730 f   tbb_misc.obj
 0001:000107b0       ?what@bad_last_alloc@tbb@@UBEPBDXZ 100117b0 f   tbb_misc.obj
 0001:000107c0       ?what@improper_lock@tbb@@UBEPBDXZ 100117c0 f   tbb_misc.obj
 0001:000107d0       ?what@user_abort@tbb@@UBEPBDXZ 100117d0 f   tbb_misc.obj
 0001:000107e0       ?what@invalid_multiple_scheduling@tbb@@UBEPBDXZ 100117e0 f   tbb_misc.obj
 0001:000107f0       ?what@missing_wait@tbb@@UBEPBDXZ 100117f0 f   tbb_misc.obj
 0001:00010800       ?handle_perror@internal@tbb@@YAXHPBD@Z 10011800 f   tbb_misc.obj
 0001:000108d0       ?handle_win_error@internal@tbb@@YAXH@Z 100118d0 f   tbb_misc.obj
 0001:00010940       ?throw_bad_last_alloc_exception_v4@internal@tbb@@YAXXZ 10011940 f   tbb_misc.obj
 0001:00010950       ?throw_exception_v4@internal@tbb@@YAXW4exception_id@12@@Z 10011950 f   tbb_misc.obj
 0001:00010c00       ?GetBoolEnvironmentVariable@internal@tbb@@YA_NPBD@Z 10011c00 f   tbb_misc.obj
 0001:00010c40       ?PrintVersion@internal@tbb@@YAXXZ 10011c40 f   tbb_misc.obj
 0001:00010c70       ?PrintExtraVersionInfo@internal@tbb@@YAXPBD0ZZ 10011c70 f   tbb_misc.obj
 0001:00010d00       ?PrintRMLVersionInfo@internal@tbb@@YAXPAXPBD@Z 10011d00 f   tbb_misc.obj
 0001:00010d20       _TBB_runtime_interface_version 10011d20 f   tbb_misc.obj
 0001:00010d30       ___TBB_machine_store8_slow_perf_warning 10011d30 f   tbb_misc.obj
 0001:00010db0       ___TBB_machine_store8_slow 10011db0 f   tbb_misc.obj
 0001:00010e40       ?strchr@@YAPADPADH@Z       10011e40 f i tbb_misc.obj
 0001:00010e60       ??0runtime_error@std@@QAE@PBD@Z 10011e60 f i tbb_misc.obj
 0001:00010e90       ??_Eruntime_error@std@@UAEPAXI@Z 10011e90 f i tbb_misc.obj
 0001:00010e90       ??_Gruntime_error@std@@UAEPAXI@Z 10011e90 f i tbb_misc.obj
 0001:00010ec0       ??1runtime_error@std@@UAE@XZ 10011ec0 f i tbb_misc.obj
 0001:00010ee0       ??0runtime_error@std@@QAE@ABV01@@Z 10011ee0 f i tbb_misc.obj
 0001:00010f10       ??0bad_alloc@std@@QAE@XZ   10011f10 f i tbb_misc.obj
 0001:00010f40       ??1bad_alloc@std@@UAE@XZ   10011f40 f i tbb_misc.obj
 0001:00010f60       ??_Ebad_alloc@std@@UAEPAXI@Z 10011f60 f i tbb_misc.obj
 0001:00010f60       ??_Gbad_alloc@std@@UAEPAXI@Z 10011f60 f i tbb_misc.obj
 0001:00010f90       ??0invalid_argument@std@@QAE@PBD@Z 10011f90 f i tbb_misc.obj
 0001:00010fc0       ??0logic_error@std@@QAE@PBD@Z 10011fc0 f i tbb_misc.obj
 0001:00010ff0       ??_Elogic_error@std@@UAEPAXI@Z 10011ff0 f i tbb_misc.obj
 0001:00010ff0       ??_Glogic_error@std@@UAEPAXI@Z 10011ff0 f i tbb_misc.obj
 0001:00011020       ??1logic_error@std@@UAE@XZ 10012020 f i tbb_misc.obj
 0001:00011040       ??_Ginvalid_argument@std@@UAEPAXI@Z 10012040 f i tbb_misc.obj
 0001:00011040       ??_Einvalid_argument@std@@UAEPAXI@Z 10012040 f i tbb_misc.obj
 0001:00011070       ??1invalid_argument@std@@UAE@XZ 10012070 f i tbb_misc.obj
 0001:00011090       ??0length_error@std@@QAE@PBD@Z 10012090 f i tbb_misc.obj
 0001:000110c0       ??_Elength_error@std@@UAEPAXI@Z 100120c0 f i tbb_misc.obj
 0001:000110c0       ??_Glength_error@std@@UAEPAXI@Z 100120c0 f i tbb_misc.obj
 0001:000110f0       ??1length_error@std@@UAE@XZ 100120f0 f i tbb_misc.obj
 0001:00011110       ??0out_of_range@std@@QAE@PBD@Z 10012110 f i tbb_misc.obj
 0001:00011140       ??_Eout_of_range@std@@UAEPAXI@Z 10012140 f i tbb_misc.obj
 0001:00011140       ??_Gout_of_range@std@@UAEPAXI@Z 10012140 f i tbb_misc.obj
 0001:00011170       ??1out_of_range@std@@UAE@XZ 10012170 f i tbb_misc.obj
 0001:00011190       ??0range_error@std@@QAE@PBD@Z 10012190 f i tbb_misc.obj
 0001:000111c0       ??_Erange_error@std@@UAEPAXI@Z 100121c0 f i tbb_misc.obj
 0001:000111c0       ??_Grange_error@std@@UAEPAXI@Z 100121c0 f i tbb_misc.obj
 0001:000111f0       ??1range_error@std@@UAE@XZ 100121f0 f i tbb_misc.obj
 0001:00011210       ??0bad_last_alloc@tbb@@QAE@XZ 10012210 f i tbb_misc.obj
 0001:00011230       ??1bad_last_alloc@tbb@@UAE@XZ 10012230 f i tbb_misc.obj
 0001:00011250       ??0missing_wait@tbb@@QAE@XZ 10012250 f i tbb_misc.obj
 0001:00011270       ??1missing_wait@tbb@@UAE@XZ 10012270 f i tbb_misc.obj
 0001:00011290       ??0invalid_multiple_scheduling@tbb@@QAE@XZ 10012290 f i tbb_misc.obj
 0001:000112b0       ??1invalid_multiple_scheduling@tbb@@UAE@XZ 100122b0 f i tbb_misc.obj
 0001:000112d0       ??0improper_lock@tbb@@QAE@XZ 100122d0 f i tbb_misc.obj
 0001:000112f0       ??1improper_lock@tbb@@UAE@XZ 100122f0 f i tbb_misc.obj
 0001:00011310       ??0user_abort@tbb@@QAE@XZ  10012310 f i tbb_misc.obj
 0001:00011330       ??1user_abort@tbb@@UAE@XZ  10012330 f i tbb_misc.obj
 0001:00011350       ??0bad_alloc@std@@QAE@ABV01@@Z 10012350 f i tbb_misc.obj
 0001:00011380       ??0bad_last_alloc@tbb@@QAE@ABV01@@Z 10012380 f i tbb_misc.obj
 0001:000113b0       ??0invalid_argument@std@@QAE@ABV01@@Z 100123b0 f i tbb_misc.obj
 0001:000113e0       ??0logic_error@std@@QAE@ABV01@@Z 100123e0 f i tbb_misc.obj
 0001:00011410       ??0out_of_range@std@@QAE@ABV01@@Z 10012410 f i tbb_misc.obj
 0001:00011440       ??0range_error@std@@QAE@ABV01@@Z 10012440 f i tbb_misc.obj
 0001:00011470       ??0missing_wait@tbb@@QAE@ABV01@@Z 10012470 f i tbb_misc.obj
 0001:000114a0       ??0invalid_multiple_scheduling@tbb@@QAE@ABV01@@Z 100124a0 f i tbb_misc.obj
 0001:000114d0       ??0improper_lock@tbb@@QAE@ABV01@@Z 100124d0 f i tbb_misc.obj
 0001:00011500       ??0length_error@std@@QAE@ABV01@@Z 10012500 f i tbb_misc.obj
 0001:00011530       ??0user_abort@tbb@@QAE@ABV01@@Z 10012530 f i tbb_misc.obj
 0001:00011560       ??_Ebad_last_alloc@tbb@@UAEPAXI@Z 10012560 f i tbb_misc.obj
 0001:00011560       ??_Gbad_last_alloc@tbb@@UAEPAXI@Z 10012560 f i tbb_misc.obj
 0001:00011590       ??_Emissing_wait@tbb@@UAEPAXI@Z 10012590 f i tbb_misc.obj
 0001:00011590       ??_Gmissing_wait@tbb@@UAEPAXI@Z 10012590 f i tbb_misc.obj
 0001:000115c0       ??_Einvalid_multiple_scheduling@tbb@@UAEPAXI@Z 100125c0 f i tbb_misc.obj
 0001:000115c0       ??_Ginvalid_multiple_scheduling@tbb@@UAEPAXI@Z 100125c0 f i tbb_misc.obj
 0001:000115f0       ??_Gimproper_lock@tbb@@UAEPAXI@Z 100125f0 f i tbb_misc.obj
 0001:000115f0       ??_Eimproper_lock@tbb@@UAEPAXI@Z 100125f0 f i tbb_misc.obj
 0001:00011620       ??_Euser_abort@tbb@@UAEPAXI@Z 10012620 f i tbb_misc.obj
 0001:00011620       ??_Guser_abort@tbb@@UAEPAXI@Z 10012620 f i tbb_misc.obj
 0001:00011650       ??4?$atomic@PAX@tbb@@QAEPAXPAX@Z 10012650 f i tbb_misc.obj
 0001:00011670       ??B?$atomic_impl@PAX@internal@tbb@@QDEPAXXZ 10012670 f i tbb_misc.obj
 0001:00011690       ?store_with_release@?$atomic_impl@PAX@internal@tbb@@IAEPAXPAX@Z 10012690 f i tbb_misc.obj
 0001:000116c0       ?AvailableHwConcurrency@internal@tbb@@YAHXZ 100126c0 f   tbb_misc_ex.obj
 0001:000119b0       ?NumberOfProcessorGroups@internal@tbb@@YAHXZ 100129b0 f   tbb_misc_ex.obj
 0001:000119f0       ?FindProcessorGroupIndex@internal@tbb@@YAHH@Z 100129f0 f   tbb_misc_ex.obj
 0001:00011b50       ?MoveThreadIntoProcessorGroup@internal@tbb@@YAXPAXH@Z 10012b50 f   tbb_misc_ex.obj
 0001:00011c20       ?internal_acquire@scoped_lock@mutex@tbb@@AAEXAAV23@@Z 10012c20 f   mutex.obj
 0001:00011ce0       ?internal_release@scoped_lock@mutex@tbb@@AAEXXZ 10012ce0 f   mutex.obj
 0001:00011dc0       ?internal_try_acquire@scoped_lock@mutex@tbb@@AAE_NAAV23@@Z 10012dc0 f   mutex.obj
 0001:00011ea0       ?internal_construct@mutex@tbb@@AAEXXZ 10012ea0 f   mutex.obj
 0001:00011ef0       ?internal_destroy@mutex@tbb@@AAEXXZ 10012ef0 f   mutex.obj
 0001:00011f80       ?internal_acquire@scoped_lock@recursive_mutex@tbb@@AAEXAAV23@@Z 10012f80 f   recursive_mutex.obj
 0001:00012000       ?internal_release@scoped_lock@recursive_mutex@tbb@@AAEXXZ 10013000 f   recursive_mutex.obj
 0001:000120b0       ?internal_try_acquire@scoped_lock@recursive_mutex@tbb@@AAE_NAAV23@@Z 100130b0 f   recursive_mutex.obj
 0001:00012150       ?internal_construct@recursive_mutex@tbb@@AAEXXZ 10013150 f   recursive_mutex.obj
 0001:000121a0       ?internal_destroy@recursive_mutex@tbb@@AAEXXZ 100131a0 f   recursive_mutex.obj
 0001:00012230       ?init_condvar_using_event@internal@tbb@@YGXPAUcondition_variable_using_event@1interface5@2@@Z 10013230 f   condition_variable.obj
 0001:00012280       ?sleep_condition_variable_cs_using_event@internal@tbb@@YGHPAUcondition_variable_using_event@1interface5@2@PAU_RTL_CRITICAL_SECTION@@K@Z 10013280 f   condition_variable.obj
 0001:000123f0       ?wake_condition_variable_using_event@internal@tbb@@YGXPAUcondition_variable_using_event@1interface5@2@@Z 100133f0 f   condition_variable.obj
 0001:00012450       ?wake_all_condition_variable_using_event@internal@tbb@@YGXPAUcondition_variable_using_event@1interface5@2@@Z 10013450 f   condition_variable.obj
 0001:000124b0       ?destroy_condvar_using_event@internal@tbb@@YGXPAUcondition_variable_using_event@1interface5@2@@Z 100134b0 f   condition_variable.obj
 0001:00012530       ?destroy_condvar_noop@internal@tbb@@YGXPAU_RTL_CONDITION_VARIABLE@@@Z 10013530 f   condition_variable.obj
 0001:00012540       ?init_condvar_module@internal@tbb@@YAXXZ 10013540 f   condition_variable.obj
 0001:000125a0       ?internal_initialize_condition_variable@internal@interface5@tbb@@YAXAATcondvar_impl_t@123@@Z 100135a0 f   condition_variable.obj
 0001:000125d0       ?internal_destroy_condition_variable@internal@interface5@tbb@@YAXAATcondvar_impl_t@123@@Z 100135d0 f   condition_variable.obj
 0001:000125e0       ?internal_condition_variable_notify_one@internal@interface5@tbb@@YAXAATcondvar_impl_t@123@@Z 100135e0 f   condition_variable.obj
 0001:000125f0       ?internal_condition_variable_notify_all@internal@interface5@tbb@@YAXAATcondvar_impl_t@123@@Z 100135f0 f   condition_variable.obj
 0001:00012600       ?internal_condition_variable_wait@internal@interface5@tbb@@YA_NAATcondvar_impl_t@123@PAVmutex@3@PBVinterval_t@tick_count@3@@Z 10013600 f   condition_variable.obj
 0001:000126d0       ?native_handle@mutex@tbb@@QAEPAU_RTL_CRITICAL_SECTION@@XZ 100136d0 f i condition_variable.obj
 0001:000126e0       ?set_state@mutex@tbb@@QAEXW4state_t@12@@Z 100136e0 f i condition_variable.obj
 0001:00012700       ?seconds@interval_t@tick_count@tbb@@QBENXZ 10013700 f i condition_variable.obj
 0001:00012730       ??$spin_wait_until_eq@HH@internal@tbb@@YAXADHH@Z 10013730 f i condition_variable.obj
 0001:00012760       ?allocate_closure_v3@internal@tbb@@YAPAXI@Z 10013760 f   tbb_thread.obj
 0001:00012780       ?free_closure_v3@internal@tbb@@YAXPAX@Z 10013780 f   tbb_thread.obj
 0001:000127a0       ?join@tbb_thread_v3@internal@tbb@@QAEXXZ 100137a0 f   tbb_thread.obj
 0001:00012840       ?detach@tbb_thread_v3@internal@tbb@@QAEXXZ 10013840 f   tbb_thread.obj
 0001:000128b0       ?internal_start@tbb_thread_v3@internal@tbb@@AAEXP6GIPAX@Z0@Z 100138b0 f   tbb_thread.obj
 0001:00012910       ?hardware_concurrency@tbb_thread_v3@internal@tbb@@SAIXZ 10013910 f   tbb_thread.obj
 0001:00012920       ?thread_get_id_v3@internal@tbb@@YA?AVid@tbb_thread_v3@12@XZ 10013920 f   tbb_thread.obj
 0001:00012940       ?move_v3@internal@tbb@@YAXAAVtbb_thread_v3@12@0@Z 10013940 f   tbb_thread.obj
 0001:00012990       ?thread_yield_v3@internal@tbb@@YAXXZ 10013990 f   tbb_thread.obj
 0001:000129a0       ?thread_sleep_v3@internal@tbb@@YAXABVinterval_t@tick_count@2@@Z 100139a0 f   tbb_thread.obj
 0001:00012a70       ?joinable@tbb_thread_v3@internal@tbb@@QBE_NXZ 10013a70 f i tbb_thread.obj
 0001:00012a90       ?default_num_threads@governor@internal@tbb@@SAIXZ 10013a90 f i tbb_thread.obj
 0001:00012ad0       ??0id@tbb_thread_v3@internal@tbb@@AAE@K@Z 10013ad0 f i tbb_thread.obj
 0001:00012af0       ??Gtbb@@YA?AVinterval_t@tick_count@0@ABV120@0@Z 10013af0 f i tbb_thread.obj
 0001:00012b20       ??0interval_t@tick_count@tbb@@AAE@_J@Z 10013b20 f i tbb_thread.obj
 0001:00012b40       ?now@tick_count@tbb@@SA?AV12@XZ 10013b40 f i tbb_thread.obj
 0001:00012b80       ??0tick_count@tbb@@QAE@XZ  10013b80 f i tbb_thread.obj
 0001:00012ba0       ??Gtbb@@YA?AVinterval_t@tick_count@0@ABV20@0@Z 10013ba0 f i tbb_thread.obj
 0001:00012bd0       ?init@thread_context@concurrent_monitor@internal@tbb@@AAEXXZ 10013bd0 f   concurrent_monitor.obj
 0001:00012c60       ??1concurrent_monitor@internal@tbb@@QAE@XZ 10013c60 f   concurrent_monitor.obj
 0001:00012cf0       ?prepare_wait@concurrent_monitor@internal@tbb@@QAEXAAVthread_context@123@I@Z 10013cf0 f   concurrent_monitor.obj
 0001:00012dd0       ?cancel_wait@concurrent_monitor@internal@tbb@@QAEXAAVthread_context@123@@Z 10013dd0 f   concurrent_monitor.obj
 0001:00012e80       ?notify_one_relaxed@concurrent_monitor@internal@tbb@@QAEXXZ 10013e80 f   concurrent_monitor.obj
 0001:00012f80       ?notify_all_relaxed@concurrent_monitor@internal@tbb@@QAEXXZ 10013f80 f   concurrent_monitor.obj
 0001:000130d0       ?abort_all_relaxed@concurrent_monitor@internal@tbb@@QAEXXZ 100140d0 f   concurrent_monitor.obj
 0001:00013230       ?flush_to@circular_doubly_linked_list_with_sentinel@internal@tbb@@QAEXAAV123@@Z 10014230 f i concurrent_monitor.obj
 0001:000132b0       ?init_binsem_using_event@internal@tbb@@YGXPAU_RTL_SRWLOCK@@@Z 100142b0 f   semaphore.obj
 0001:000132e0       ?acquire_binsem_using_event@internal@tbb@@YGXPAU_RTL_SRWLOCK@@@Z 100142e0 f   semaphore.obj
 0001:00013300       ?release_binsem_using_event@internal@tbb@@YGXPAU_RTL_SRWLOCK@@@Z 10014300 f   semaphore.obj
 0001:00013320       ??0binary_semaphore@internal@tbb@@QAE@XZ 10014320 f   semaphore.obj
 0001:00013370       ??1binary_semaphore@internal@tbb@@QAE@XZ 10014370 f   semaphore.obj
 0001:000133a0       ?P@binary_semaphore@internal@tbb@@QAEXXZ 100143a0 f   semaphore.obj
 0001:000133c0       ?V@binary_semaphore@internal@tbb@@QAEXXZ 100143c0 f   semaphore.obj
 0001:00013420       ?init_concmon_module@internal@tbb@@YAXXZ 10014420 f i semaphore.obj
 0001:00013470       ?thread_routine@private_worker@rml@internal@tbb@@CGIPAX@Z 10014470 f   private_server.obj
 0001:00013500       ?start_shutdown@private_worker@rml@internal@tbb@@AAEXXZ 10014500 f   private_server.obj
 0001:00013590       ?run@private_worker@rml@internal@tbb@@AAEXXZ 10014590 f   private_server.obj
 0001:000136d0       ??0private_server@rml@internal@tbb@@QAE@AAVtbb_client@123@@Z 100146d0 f   private_server.obj
 0001:00013890       ??1private_server@rml@internal@tbb@@EAE@XZ 10014890 f   private_server.obj
 0001:00013930       ?wake_some@private_server@rml@internal@tbb@@AAEXH@Z 10014930 f   private_server.obj
 0001:00013ab0       ?adjust_job_count_estimate@private_server@rml@internal@tbb@@UAEXH@Z 10014ab0 f   private_server.obj
 0001:00013b00       ?make_private_server@rml@internal@tbb@@YAPAVtbb_server@123@AAVtbb_client@123@@Z 10014b00 f   private_server.obj
 0001:00013c00       ?notify@thread_monitor@internal@rml@@QAEXXZ 10014c00 f i private_server.obj
 0001:00013c50       ?remove_server_ref@private_server@rml@internal@tbb@@AAEXXZ 10014c50 f i private_server.obj
 0001:00013cb0       ?prepare_wait@thread_monitor@internal@rml@@QAEXAAVcookie@123@@Z 10014cb0 f i private_server.obj
 0001:00013d00       ??4cookie@thread_monitor@internal@rml@@QAEAAV0123@ABV0123@@Z 10014d00 f i private_server.obj
 0001:00013d20       ?commit_wait@thread_monitor@internal@rml@@QAEXAAVcookie@123@@Z 10014d20 f i private_server.obj
 0001:00013d70       ?cancel_wait@thread_monitor@internal@rml@@QAEXXZ 10014d70 f i private_server.obj
 0001:00013da0       ?propagate_chain_reaction@private_server@rml@internal@tbb@@AAEXXZ 10014da0 f i private_server.obj
 0001:00013dd0       ??4?$atomic@H@tbb@@QAEHH@Z 10014dd0 f i private_server.obj
 0001:00013df0       ??0padded_private_worker@rml@internal@tbb@@QAE@AAVprivate_server@123@AAVtbb_client@123@I@Z 10014df0 f i private_server.obj
 0001:00013e20       ??0private_worker@rml@internal@tbb@@IAE@AAVprivate_server@123@AAVtbb_client@123@I@Z 10014e20 f i private_server.obj
 0001:00013ea0       ??0thread_monitor@internal@rml@@QAE@XZ 10014ea0 f i private_server.obj
 0001:00013f40       ??1thread_monitor@internal@rml@@QAE@XZ 10014f40 f i private_server.obj
 0001:00013f60       ?version@private_server@rml@internal@tbb@@UBEIXZ 10014f60 f i private_server.obj
 0001:00013f70       ?request_close_connection@private_server@rml@internal@tbb@@UAEX_N@Z 10014f70 f i private_server.obj
 0001:00013fc0       ?yield@private_server@rml@internal@tbb@@UAEXXZ 10014fc0 f i private_server.obj
 0001:00013fe0       ?independent_thread_number_changed@private_server@rml@internal@tbb@@UAEXH@Z 10014fe0 f i private_server.obj
 0001:00014010       ?default_concurrency@private_server@rml@internal@tbb@@UBEIXZ 10015010 f i private_server.obj
 0001:00014030       ?register_master@private_server@rml@internal@tbb@@UAEXAAPAX@Z 10015030 f i private_server.obj
 0001:00014040       ?unregister_master@private_server@rml@internal@tbb@@UAEXPAX@Z 10015040 f i private_server.obj
 0001:00014050       ??_Eprivate_server@rml@internal@tbb@@EAEPAXI@Z 10015050 f i private_server.obj
 0001:00014050       ??_Gprivate_server@rml@internal@tbb@@EAEPAXI@Z 10015050 f i private_server.obj
 0001:00014080       ??0tbb_server@rml@internal@tbb@@QAE@XZ 10015080 f i private_server.obj
 0001:000140a0       ??0server@rml@@QAE@XZ      100150a0 f i private_server.obj
 0001:000140c0       ??0versioned_object@rml@@QAE@XZ 100150c0 f i private_server.obj
 0001:000140e0       ??_Gpadded_private_worker@rml@internal@tbb@@QAEPAXI@Z 100150e0 f i private_server.obj
 0001:00014110       ??1padded_private_worker@rml@internal@tbb@@QAE@XZ 10015110 f i private_server.obj
 0001:00014130       ??1private_worker@rml@internal@tbb@@QAE@XZ 10015130 f i private_server.obj
 0001:00014150       ?try_insert_in_asleep_list@private_server@rml@internal@tbb@@AAE_NAAVprivate_worker@234@@Z 10015150 f i private_server.obj
 0001:00014220       ?wake_or_launch@private_worker@rml@internal@tbb@@AAEXXZ 10015220 f i private_server.obj
 0001:00014280       ?launch@thread_monitor@internal@rml@@SAXP6GIPAX@Z0IPBI@Z 10015280 f i private_server.obj
 0001:00014340       ??Y?$atomic_impl_with_arithmetic@HHD@internal@tbb@@QAEHH@Z 10015340 f i private_server.obj
 0001:00014360       ??E?$atomic_impl_with_arithmetic@HHD@internal@tbb@@QAEHXZ 10015360 f i private_server.obj
 0001:00014380       ??F?$atomic_impl_with_arithmetic@HHD@internal@tbb@@QAEHXZ 10015380 f i private_server.obj
 0001:000143a0       ?compare_and_swap@?$atomic_impl@H@internal@tbb@@QAEHHH@Z 100153a0 f i private_server.obj
 0001:000143c0       ??B?$atomic_impl@H@internal@tbb@@QDEHXZ 100153c0 f i private_server.obj
 0001:000143e0       ?store_with_release@?$atomic_impl@H@internal@tbb@@IAEHH@Z 100153e0 f i private_server.obj
 0001:00014410       ?fetch_and_store@?$atomic_impl@_N@internal@tbb@@QAE_N_N@Z 10015410 f i private_server.obj
 0001:00014430       ??4?$atomic@W4state_t@private_worker@rml@internal@tbb@@@tbb@@QAE?AW4state_t@private_worker@rml@internal@1@W423451@@Z 10015430 f i private_server.obj
 0001:00014450       ?compare_and_swap@?$atomic_impl@W4state_t@private_worker@rml@internal@tbb@@@internal@tbb@@QAE?AW4state_t@private_worker@rml@23@W445623@0@Z 10015450 f i private_server.obj
 0001:00014470       ??B?$atomic_impl@W4state_t@private_worker@rml@internal@tbb@@@internal@tbb@@QDE?AW4state_t@private_worker@rml@12@XZ 10015470 f i private_server.obj
 0001:00014490       ??4?$atomic@PAVprivate_worker@rml@internal@tbb@@@tbb@@QAEPAVprivate_worker@rml@internal@1@PAV2341@@Z 10015490 f i private_server.obj
 0001:000144b0       ??B?$atomic_impl@PAVprivate_worker@rml@internal@tbb@@@internal@tbb@@QDEPAVprivate_worker@rml@12@XZ 100154b0 f i private_server.obj
 0001:000144d0       ??0?$cache_aligned_allocator@Vprivate_server@rml@internal@tbb@@@tbb@@QAE@XZ 100154d0 f i private_server.obj
 0001:000144e0       ?allocate@?$cache_aligned_allocator@Vprivate_server@rml@internal@tbb@@@tbb@@QAEPAVprivate_server@rml@internal@2@IPBX@Z 100154e0 f i private_server.obj
 0001:00014500       ?deallocate@?$cache_aligned_allocator@Vprivate_server@rml@internal@tbb@@@tbb@@QAEXPAVprivate_server@rml@internal@2@I@Z 10015500 f i private_server.obj
 0001:00014520       ??0?$cache_aligned_allocator@Vpadded_private_worker@rml@internal@tbb@@@tbb@@QAE@XZ 10015520 f i private_server.obj
 0001:00014530       ?allocate@?$cache_aligned_allocator@Vpadded_private_worker@rml@internal@tbb@@@tbb@@QAEPAVpadded_private_worker@rml@internal@2@IPBX@Z 10015530 f i private_server.obj
 0001:00014560       ?deallocate@?$cache_aligned_allocator@Vpadded_private_worker@rml@internal@tbb@@@tbb@@QAEXPAVpadded_private_worker@rml@internal@2@I@Z 10015560 f i private_server.obj
 0001:00014580       ?fetch_and_add@?$atomic_impl_with_arithmetic@HHD@internal@tbb@@QAEHH@Z 10015580 f i private_server.obj
 0001:000145a0       ?store_with_release@?$atomic_impl@W4state_t@private_worker@rml@internal@tbb@@@internal@tbb@@IAE?AW4state_t@private_worker@rml@23@W445623@@Z 100155a0 f i private_server.obj
 0001:000145d0       ?store_with_release@?$atomic_impl@PAVprivate_worker@rml@internal@tbb@@@internal@tbb@@IAEPAVprivate_worker@rml@23@PAV4523@@Z 100155d0 f i private_server.obj
 0001:00014600       ??$poison_pointer@Vpadded_private_worker@rml@internal@tbb@@@internal@tbb@@YAXAAPAVpadded_private_worker@rml@01@@Z 10015600 f i private_server.obj
 0001:00014610       ??$compare_and_swap@$0A@@?$atomic_impl@H@internal@tbb@@QAEHHH@Z 10015610 f i private_server.obj
 0001:00014650       ??$fetch_and_store@$0A@@?$atomic_impl@_N@internal@tbb@@QAE_N_N@Z 10015650 f i private_server.obj
 0001:00014680       ??$compare_and_swap@$0A@@?$atomic_impl@W4state_t@private_worker@rml@internal@tbb@@@internal@tbb@@QAE?AW4state_t@private_worker@rml@12@W434512@0@Z 10015680 f i private_server.obj
 0001:000146c0       ??$fetch_and_add@$0A@@?$atomic_impl_with_arithmetic@HHD@internal@tbb@@QAEHH@Z 100156c0 f i private_server.obj
 0001:000146e0       ?fetch_and_store@?$atomic_traits@$00$0A@@internal@tbb@@SACPCXC@Z 100156e0 f i private_server.obj
 0001:00014700       ?open@tbb_factory@rml@internal@tbb@@QAE?AW4status_type@factory@2@XZ 10015700 f   rml_tbb.obj
 0001:000147d0       ?close@tbb_factory@rml@internal@tbb@@QAEXXZ 100157d0 f   rml_tbb.obj
 0001:00014820       ?make_server@tbb_factory@rml@internal@tbb@@QAE?AW4status_type@factory@2@AAPAVtbb_server@234@AAVtbb_client@234@@Z 10015820 f   rml_tbb.obj
 0001:00014870       ?call_with_server_info@tbb_factory@rml@internal@tbb@@QBEXP6AXPAXPBD@Z0@Z 10015870 f   rml_tbb.obj
 0001:000148b0       ??1captured_exception@tbb@@UAE@XZ 100158b0 f   task_group_context.obj
 0001:000148e0       ?set@captured_exception@tbb@@QAEXPBD0@Z 100158e0 f   task_group_context.obj
 0001:00014920       ?clear@captured_exception@tbb@@QAEXXZ 10015920 f   task_group_context.obj
 0001:00014950       ?move@captured_exception@tbb@@UAEPAV12@XZ 10015950 f   task_group_context.obj
 0001:000149e0       ?destroy@captured_exception@tbb@@UAEXXZ 100159e0 f   task_group_context.obj
 0001:00014a30       ?allocate@captured_exception@tbb@@SAPAV12@PBD0@Z 10015a30 f   task_group_context.obj
 0001:00014ad0       ?name@captured_exception@tbb@@UBEPBDXZ 10015ad0 f   task_group_context.obj
 0001:00014af0       ?what@captured_exception@tbb@@UBEPBDXZ 10015af0 f   task_group_context.obj
 0001:00014b10       ?allocate@tbb_exception_ptr@internal@tbb@@SAPAV123@XZ 10015b10 f   task_group_context.obj
 0001:00014b90       ?allocate@tbb_exception_ptr@internal@tbb@@SAPAV123@ABVtbb_exception@3@@Z 10015b90 f   task_group_context.obj
 0001:00014c10       ?allocate@tbb_exception_ptr@internal@tbb@@SAPAV123@AAVcaptured_exception@3@@Z 10015c10 f   task_group_context.obj
 0001:00014c40       ?destroy@tbb_exception_ptr@internal@tbb@@QAEXXZ 10015c40 f   task_group_context.obj
 0001:00014c60       ??1task_group_context@tbb@@QAE@XZ 10015c60 f   task_group_context.obj
 0001:00014f00       ?init@task_group_context@tbb@@IAEXXZ 10015f00 f   task_group_context.obj
 0001:00015000       ?register_with@task_group_context@tbb@@QAEXPAVgeneric_scheduler@internal@2@@Z 10016000 f   task_group_context.obj
 0001:00015160       ?bind_to@task_group_context@tbb@@QAEXPAVgeneric_scheduler@internal@2@@Z 10016160 f   task_group_context.obj
 0001:000152e0       ?cancel_group_execution@task_group_context@tbb@@QAE_NXZ 100162e0 f   task_group_context.obj
 0001:00015390       ?is_group_execution_cancelled@task_group_context@tbb@@QBE_NXZ 10016390 f   task_group_context.obj
 0001:000153b0       ?reset@task_group_context@tbb@@QAEXXZ 100163b0 f   task_group_context.obj
 0001:000153f0       ?register_pending_exception@task_group_context@tbb@@QAEXXZ 100163f0 f   task_group_context.obj
 0001:00015590       ?set_priority@task_group_context@tbb@@QAEXW4priority_t@2@@Z 10016590 f   task_group_context.obj
 0001:00015650       ?priority@task_group_context@tbb@@QBE?AW4priority_t@2@XZ 10016650 f   task_group_context.obj
 0001:000156a0       ?throw_self@captured_exception@tbb@@UAEXXZ 100166a0 f i task_group_context.obj
 0001:000156d0       ??0captured_exception@tbb@@QAE@ABV01@@Z 100166d0 f i task_group_context.obj
 0001:00015720       ??_Gcaptured_exception@tbb@@UAEPAXI@Z 10016720 f i task_group_context.obj
 0001:00015720       ??_Ecaptured_exception@tbb@@UAEPAXI@Z 10016720 f i task_group_context.obj
 0001:00015750       ??3tbb_exception@tbb@@SAXPAX@Z 10016750 f i task_group_context.obj
 0001:00015770       ??0tbb_exception@tbb@@QAE@ABV01@@Z 10016770 f i task_group_context.obj
 0001:000157a0       ??1tbb_exception@tbb@@UAE@XZ 100167a0 f i task_group_context.obj
 0001:000157c0       ??_Gtbb_exception@tbb@@UAEPAXI@Z 100167c0 f i task_group_context.obj
 0001:000157c0       ??_Etbb_exception@tbb@@UAEPAXI@Z 100167c0 f i task_group_context.obj
 0001:000157f0       ?duplicate_string@tbb@@YAPADPBD@Z 100167f0 f i task_group_context.obj
 0001:00015840       ??0captured_exception@tbb@@QAE@XZ 10016840 f i task_group_context.obj
 0001:00015860       ??0tbb_exception@tbb@@QAE@XZ 10016860 f i task_group_context.obj
 0001:00015880       ??0captured_exception@tbb@@QAE@PBD0@Z 10016880 f i task_group_context.obj
 0001:000158c0       ??1_Exception_ptr@std@@QAE@XZ 100168c0 f i task_group_context.obj
 0001:000158e0       ?current_exception@std@@YA?AV_Exception_ptr@1@XZ 100168e0 f i task_group_context.obj
 0001:00015910       ?_Current_exception@_Exception_ptr@std@@SA?AV12@XZ 10016910 f i task_group_context.obj
 0001:00015990       ??0_Exception_ptr@std@@QAE@XZ 10016990 f i task_group_context.obj
 0001:000159b0       ??0_Exception_ptr@std@@QAE@ABV01@@Z 100169b0 f i task_group_context.obj
 0001:000159e0       ??1tbb_exception_ptr@internal@tbb@@QAE@XZ 100169e0 f i task_group_context.obj
 0001:00015a00       ?lock@spin_mutex@tbb@@QAEXXZ 10016a00 f i task_group_context.obj
 0001:00015aa0       ?unlock@spin_mutex@tbb@@QAEXXZ 10016aa0 f i task_group_context.obj
 0001:00015af0       ?is_set@governor@internal@tbb@@SA_NPAVgeneric_scheduler@23@@Z 10016af0 f i task_group_context.obj
 0001:00015b10       ?normalize_priority@internal@tbb@@YAHW4priority_t@2@@Z 10016b10 f i task_group_context.obj
 0001:00015b30       ?local_scheduler_if_initialized@governor@internal@tbb@@SAPAVgeneric_scheduler@23@XZ 10016b30 f i task_group_context.obj
 0001:00015b40       ?begin@?$aligned_space@Vscoped_lock@spin_mutex@tbb@@$00@tbb@@QAEPAVscoped_lock@spin_mutex@2@XZ 10016b40 f i task_group_context.obj
 0001:00015b60       ??$AllocateExceptionContainer@V_Exception_ptr@std@@@internal@tbb@@YAPAVtbb_exception_ptr@01@ABV_Exception_ptr@std@@@Z 10016b60 f i task_group_context.obj
 0001:00015bf0       ??0tbb_exception_ptr@internal@tbb@@QAE@ABV_Exception_ptr@std@@@Z 10016bf0 f i task_group_context.obj
 0001:00015c10       ??$AllocateExceptionContainer@Vcaptured_exception@tbb@@@internal@tbb@@YAPAVtbb_exception_ptr@01@ABVcaptured_exception@1@@Z 10016c10 f i task_group_context.obj
 0001:00015ca0       ??0tbb_exception_ptr@internal@tbb@@QAE@ABVcaptured_exception@2@@Z 10016ca0 f i task_group_context.obj
 0001:00015ce0       ??$copy_exception@Vcaptured_exception@tbb@@@std@@YA?AV_Exception_ptr@0@Vcaptured_exception@tbb@@@Z 10016ce0 f i task_group_context.obj
 0001:00015d50       ?_Copy_exception@_Exception_ptr@std@@SA?AV12@PAXPBX@Z 10016d50 f i task_group_context.obj
 0001:00015e10       ??0_Exception_ptr@std@@QAE@$$T@Z 10016e10 f i task_group_context.obj
 0001:00015e30       ??$store@$02@?$atomic_impl@I@internal@tbb@@QAEXI@Z 10016e30 f i task_group_context.obj
 0001:00015e60       ??$load@$02@?$atomic_impl@I@internal@tbb@@QBEIXZ 10016e60 f i task_group_context.obj
 0001:00015e80       ??$store@$01@?$atomic_impl@I@internal@tbb@@QAEXI@Z 10016e80 f i task_group_context.obj
 0001:00015eb0       ??$fetch_and_increment@$0A@@?$atomic_impl_with_arithmetic@IID@internal@tbb@@QAEIXZ 10016eb0 f i task_group_context.obj
 0001:00015ed0       ??$fetch_and_decrement@$0A@@?$atomic_impl_with_arithmetic@IID@internal@tbb@@QAEIXZ 10016ed0 f i task_group_context.obj
 0001:00015ef0       ??$poison_value@I@internal@tbb@@YAXAAI@Z 10016ef0 f i task_group_context.obj
 0001:00015f10       ??$__TBB_store_with_release@PAUcontext_list_node_t@internal@tbb@@PAU123@@internal@tbb@@YAXACRAUcontext_list_node_t@01@PAU201@@Z 10016f10 f i task_group_context.obj
 0001:00015f30       ??$propagate_task_group_state@I@arena@internal@tbb@@AAE_NPQtask_group_context@2@IAAV32@I@Z 10016f30 f i task_group_context.obj
 0001:00015f60       ??$propagate_task_group_state@H@arena@internal@tbb@@AAE_NPQtask_group_context@2@HAAV32@H@Z 10016f60 f i task_group_context.obj
 0001:00015f90       ??$punned_cast@PAVscoped_lock@spin_mutex@tbb@@V?$aligned_space@Vscoped_lock@spin_mutex@tbb@@$00@3@@internal@tbb@@YAPAVscoped_lock@spin_mutex@1@PAV?$aligned_space@Vscoped_lock@spin_mutex@tbb@@$00@1@@Z 10016f90 f i task_group_context.obj
 0001:00015fb0       ?store_with_release@?$machine_load_store@PAUcontext_list_node_t@internal@tbb@@$03@internal@tbb@@SAXACRAUcontext_list_node_t@23@PAU423@@Z 10016fb0 f i task_group_context.obj
 0001:00015fc0       ??$store@H@?$atomic_load_store_traits@$02@internal@tbb@@SAXACHH@Z 10016fc0 f i task_group_context.obj
 0001:00015fe0       ??$store@H@?$atomic_load_store_traits@$01@internal@tbb@@SAXACHH@Z 10016fe0 f i task_group_context.obj
 0001:00016000       ??$punned_cast@PAI$$CBI@internal@tbb@@YAPAIPBI@Z 10017000 f i task_group_context.obj
 0001:00016020       ??$propagate_task_group_state@I@market@internal@tbb@@QAE_NPQtask_group_context@2@IAAV32@I@Z 10017020 f i task_group_context.obj
 0001:00016260       ??$propagate_task_group_state@H@market@internal@tbb@@QAE_NPQtask_group_context@2@HAAV32@H@Z 10017260 f i task_group_context.obj
 0001:000164a0       ?begin@?$intrusive_list_base@V?$intrusive_list@Varena@internal@tbb@@@internal@tbb@@Varena@23@@internal@tbb@@QAE?AViterator@123@XZ 100174a0 f i task_group_context.obj
 0001:000164d0       ?end@?$intrusive_list_base@V?$intrusive_list@Varena@internal@tbb@@@internal@tbb@@Varena@23@@internal@tbb@@QAE?AViterator@123@XZ 100174d0 f i task_group_context.obj
 0001:000164f0       ??Diterator@?$intrusive_list_base@V?$intrusive_list@Varena@internal@tbb@@@internal@tbb@@Varena@23@@internal@tbb@@QBEAAVarena@23@XZ 100174f0 f i task_group_context.obj
 0001:00016510       ??9?$iterator_impl@Viterator@?$intrusive_list_base@V?$intrusive_list@Varena@internal@tbb@@@internal@tbb@@Varena@23@@internal@tbb@@@?$intrusive_list_base@V?$intrusive_list@Varena@internal@tbb@@@internal@tbb@@Varena@23@@internal@tbb@@QBE_NABViterator@123@@Z 10017510 f i task_group_context.obj
 0001:00016530       ??E?$iterator_impl@Viterator@?$intrusive_list_base@V?$intrusive_list@Varena@internal@tbb@@@internal@tbb@@Varena@23@@internal@tbb@@@?$intrusive_list_base@V?$intrusive_list@Varena@internal@tbb@@@internal@tbb@@Varena@23@@internal@tbb@@QAEAAViterator@123@XZ 10017530 f i task_group_context.obj
 0001:00016560       ??0iterator@?$intrusive_list_base@V?$intrusive_list@Varena@internal@tbb@@@internal@tbb@@Varena@23@@internal@tbb@@AAE@PAUintrusive_list_node@23@0@Z 10017560 f i task_group_context.obj
 0001:00016580       ?self@?$iterator_impl@Viterator@?$intrusive_list_base@V?$intrusive_list@Varena@internal@tbb@@@internal@tbb@@Varena@23@@internal@tbb@@@?$intrusive_list_base@V?$intrusive_list@Varena@internal@tbb@@@internal@tbb@@Varena@23@@internal@tbb@@AAEAAViterator@234@XZ 10017580 f i task_group_context.obj
 0001:00016590       ?item@?$iterator_impl@Viterator@?$intrusive_list_base@V?$intrusive_list@Varena@internal@tbb@@@internal@tbb@@Varena@23@@internal@tbb@@@?$intrusive_list_base@V?$intrusive_list@Varena@internal@tbb@@@internal@tbb@@Varena@23@@internal@tbb@@IBEAAVarena@34@XZ 10017590 f i task_group_context.obj
 0001:000165b0       ?item@?$intrusive_list_base@V?$intrusive_list@Varena@internal@tbb@@@internal@tbb@@Varena@23@@internal@tbb@@CAAAVarena@23@PAUintrusive_list_node@23@@Z 100175b0 f i task_group_context.obj
 0001:000165d0       ??0?$iterator_impl@Viterator@?$intrusive_list_base@V?$intrusive_list@Varena@internal@tbb@@@internal@tbb@@Varena@23@@internal@tbb@@@?$intrusive_list_base@V?$intrusive_list@Varena@internal@tbb@@@internal@tbb@@Varena@23@@internal@tbb@@IAE@PAUintrusive_list_node@23@0@Z 100175d0 f i task_group_context.obj
 0001:00016600       ?item@?$intrusive_list@Varena@internal@tbb@@@internal@tbb@@CAAAVarena@23@PAUintrusive_list_node@23@@Z 10017600 f i task_group_context.obj
 0001:00016610       ??$__TBB_store_relaxed@HH@internal@tbb@@YAXACHH@Z 10017610 f i task_group_context.obj
 0001:00016630       ??$propagate_task_group_state@I@generic_scheduler@internal@tbb@@QAEXPQtask_group_context@2@II@Z 10017630 f i task_group_context.obj
 0001:00016740       ?__TBB_store_with_release@internal@tbb@@YAXACII@Z 10017740 f i task_group_context.obj
 0001:00016760       ?is_alive@internal@tbb@@YA_NI@Z 10017760 f i task_group_context.obj
 0001:00016780       ??$__TBB_store_with_release@PAVgeneric_scheduler@internal@tbb@@PAV123@@internal@tbb@@YAXACRAVgeneric_scheduler@01@PAV201@@Z 10017780 f i task_group_context.obj
 0001:000167a0       ??$propagate_task_group_state@H@generic_scheduler@internal@tbb@@QAEXPQtask_group_context@2@HH@Z 100177a0 f i task_group_context.obj
 0001:000168b0       ?store@?$machine_load_store_relaxed@H$03@internal@tbb@@SAXACHH@Z 100178b0 f i task_group_context.obj
 0001:000168c0       ?store_with_release@?$machine_load_store@PAVgeneric_scheduler@internal@tbb@@$03@internal@tbb@@SAXACRAVgeneric_scheduler@23@PAV423@@Z 100178c0 f i task_group_context.obj
 0001:000168d0       ??$__TBB_load_with_acquire@PAUcontext_list_node_t@internal@tbb@@@internal@tbb@@YAPAUcontext_list_node_t@01@ADSAU201@@Z 100178d0 f i task_group_context.obj
 0001:000168f0       ??$propagate_state_from_ancestors@I@task_group_context@tbb@@QAEXPQ01@II@Z 100178f0 f i task_group_context.obj
 0001:00016950       ??$propagate_state_from_ancestors@H@task_group_context@tbb@@QAEXPQ01@HH@Z 10017950 f i task_group_context.obj
 0001:000169b0       ?load_with_acquire@?$machine_load_store@PAUcontext_list_node_t@internal@tbb@@$03@internal@tbb@@SAPAUcontext_list_node_t@23@ADSAU423@@Z 100179b0 f i task_group_context.obj
 0001:000169e0       ?initialize_cilk_interop@internal@tbb@@YA_NXZ 100179e0 f   governor.obj
 0001:00016a00       ?acquire_resources@governor@internal@tbb@@CAXXZ 10017a00 f   governor.obj
 0001:00016a30       ?release_resources@governor@internal@tbb@@CAXXZ 10017a30 f   governor.obj
 0001:00016aa0       ?create_rml_server@governor@internal@tbb@@CAPAVtbb_server@rml@23@AAVtbb_client@523@@Z 10017aa0 f   governor.obj
 0001:00016b50       ?sign_on@governor@internal@tbb@@SAXPAVgeneric_scheduler@23@@Z 10017b50 f   governor.obj
 0001:00016be0       ?sign_off@governor@internal@tbb@@SAXPAVgeneric_scheduler@23@@Z 10017be0 f   governor.obj
 0001:00016c60       ?init_scheduler@governor@internal@tbb@@SAPAVgeneric_scheduler@23@II_N@Z 10017c60 f   governor.obj
 0001:00016d30       ?terminate_scheduler@governor@internal@tbb@@SAXPAVgeneric_scheduler@23@@Z 10017d30 f   governor.obj
 0001:00016d90       ?auto_terminate@governor@internal@tbb@@CAXPAX@Z 10017d90 f   governor.obj
 0001:00016e20       ?print_version_info@governor@internal@tbb@@SAXXZ 10017e20 f   governor.obj
 0001:00016e90       ?initialize_rml_factory@governor@internal@tbb@@SAXXZ 10017e90 f   governor.obj
 0001:00016ec0       ?stack_op_handler@governor@internal@tbb@@SAHW4__cilk_tbb_stack_op@@PAX@Z 10017ec0 f   governor.obj
 0001:00017090       ?initialize@task_scheduler_init@tbb@@QAEXH@Z 10018090 f   governor.obj
 0001:000170b0       ?initialize@task_scheduler_init@tbb@@QAEXHI@Z 100180b0 f   governor.obj
 0001:00017200       ?terminate@task_scheduler_init@tbb@@QAEXXZ 10018200 f   governor.obj
 0001:000172c0       ?default_num_threads@task_scheduler_init@tbb@@SAHXZ 100182c0 f   governor.obj
 0001:00017310       ?initialization_done@__TBB_InitOnce@internal@tbb@@SA_NXZ 10018310 f i governor.obj
 0001:00017330       ?master_outermost_level@generic_scheduler@internal@tbb@@QBE_NXZ 10018330 f i governor.obj
 0001:00017350       ?default_context@generic_scheduler@internal@tbb@@QAEPAVtask_group_context@3@XZ 10018350 f i governor.obj
 0001:00017370       ?create@?$basic_tls@PAVgeneric_scheduler@internal@tbb@@@internal@tbb@@QAEHXZ 10018370 f i governor.obj
 0001:000173a0       ?destroy@?$basic_tls@PAVgeneric_scheduler@internal@tbb@@@internal@tbb@@QAEHXZ 100183a0 f i governor.obj
 0001:000173d0       ?set@?$basic_tls@PAVgeneric_scheduler@internal@tbb@@@internal@tbb@@QAEXPAVgeneric_scheduler@23@@Z 100183d0 f i governor.obj
 0001:000173f0       ??$__TBB_load_with_acquire@_N@internal@tbb@@YA_NAD_N@Z 100183f0 f i governor.obj
 0001:00017410       ??$suppress_unused_warning@PAVgeneric_scheduler@internal@tbb@@@internal@tbb@@YAXABQAVgeneric_scheduler@01@@Z 10018410 f i governor.obj
 0001:00017420       ??$atomic_do_once@P6A_NXZ@internal@tbb@@YAXABQ6A_NXZAAU?$atomic@W4do_once_state@internal@tbb@@@1@@Z 10018420 f i governor.obj
 0001:00017480       ?run_initializer@internal@tbb@@YAXP6A_NXZAAU?$atomic@W4do_once_state@internal@tbb@@@2@@Z 10018480 f i governor.obj
 0001:000174a0       ?load_with_acquire@?$machine_load_store@_N$00@internal@tbb@@SA_NAD_N@Z 100184a0 f i governor.obj
 0001:000174c0       ?insert_arena_into_list@market@internal@tbb@@AAEXAAVarena@23@@Z 100184c0 f   market.obj
 0001:00017530       ?remove_arena_from_list@market@internal@tbb@@AAEXAAVarena@23@@Z 10018530 f   market.obj
 0001:00017600       ??0market@internal@tbb@@AAE@II@Z 10018600 f   market.obj
 0001:000176e0       ?global_market@market@internal@tbb@@CAAAV123@II@Z 100186e0 f   market.obj
 0001:00017860       ?destroy@market@internal@tbb@@AAEXXZ 10018860 f   market.obj
 0001:000178b0       ?release@market@internal@tbb@@QAEXXZ 100188b0 f   market.obj
 0001:00017950       ?create_arena@market@internal@tbb@@SAAAVarena@23@II@Z 10018950 f   market.obj
 0001:00017a00       ?detach_arena@market@internal@tbb@@QAEXAAVarena@23@@Z 10018a00 f   market.obj
 0001:00017a90       ?try_destroy_arena@market@internal@tbb@@AAEXPAVarena@23@I@Z 10018a90 f   market.obj
 0001:00017c40       ?try_destroy_arena@market@internal@tbb@@SAXPAV123@PAVarena@23@I_N@Z 10018c40 f   market.obj
 0001:00017d00       ?arena_in_need@market@internal@tbb@@AAEPAVarena@23@AAV?$intrusive_list@Varena@internal@tbb@@@23@AAViterator@?$intrusive_list_base@V?$intrusive_list@Varena@internal@tbb@@@internal@tbb@@Varena@23@@23@@Z 10018d00 f   market.obj
 0001:00017e00       ?update_allotment@market@internal@tbb@@CAXAAV?$intrusive_list@Varena@internal@tbb@@@23@HH@Z 10018e00 f   market.obj
 0001:00017f40       ?arena_in_need@market@internal@tbb@@AAEPAVarena@23@XZ 10018f40 f   market.obj
 0001:00018000       ?update_allotment@market@internal@tbb@@AAEXH@Z 10019000 f   market.obj
 0001:00018180       ?adjust_demand@market@internal@tbb@@QAEXAAVarena@23@H@Z 10019180 f   market.obj
 0001:00018500       ?process@market@internal@tbb@@EAEXAAVjob@rml@@@Z 10019500 f   market.obj
 0001:00018580       ?cleanup@market@internal@tbb@@EAEXAAVjob@rml@@@Z 10019580 f   market.obj
 0001:00018650       ?acknowledge_close_connection@market@internal@tbb@@EAEXXZ 10019650 f   market.obj
 0001:00018670       ?create_one_job@market@internal@tbb@@EAEPAVjob@rml@@XZ 10019670 f   market.obj
 0001:00018740       ?update_arena_top_priority@market@internal@tbb@@AAEXAAVarena@23@H@Z 10019740 f   market.obj
 0001:00018820       ?lower_arena_priority@market@internal@tbb@@QAE_NAAVarena@23@HH@Z 10019820 f   market.obj
 0001:000189d0       ?update_arena_priority@market@internal@tbb@@QAE_NAAVarena@23@H@Z 100199d0 f   market.obj
 0001:00018cf0       ?workers_task_node_count@market@internal@tbb@@QAEHXZ 10019cf0 f   market.obj
 0001:00018e00       ?version@market@internal@tbb@@EBEIXZ 10019e00 f i market.obj
 0001:00018e10       ?max_job_count@market@internal@tbb@@EBEIXZ 10019e10 f i market.obj
 0001:00018e30       ?min_stack_size@market@internal@tbb@@EBEIXZ 10019e30 f i market.obj
 0001:00018e50       ?policy@market@internal@tbb@@EBE?AW4policy_type@client@rml@@XZ 10019e50 f i market.obj
 0001:00018e60       ?worker_stack_size@market@internal@tbb@@QBEIXZ 10019e60 f i market.obj
 0001:00018e80       ??0tbb_client@rml@internal@tbb@@QAE@XZ 10019e80 f i market.obj
 0001:00018ea0       ??0priority_level_info@market@internal@tbb@@QAE@XZ 10019ea0 f i market.obj
 0001:00018ed0       ??0client@rml@@QAE@XZ      10019ed0 f i market.obj
 0001:00018ef0       ??0?$intrusive_list@Varena@internal@tbb@@@internal@tbb@@QAE@XZ 10019ef0 f i market.obj
 0001:00018f10       ?release@scoped_lock@spin_mutex@tbb@@QAEXXZ 10019f10 f i market.obj
 0001:00018f30       ?assert_market_valid@market@internal@tbb@@ABEXXZ 10019f30 f i market.obj
 0001:00018fa0       ?num_workers_active@arena@internal@tbb@@AAEIXZ 10019fa0 f i market.obj
 0001:00018fd0       ?update_global_top_priority@market@internal@tbb@@AAEXH@Z 10019fd0 f i market.obj
 0001:00019010       ?advance_global_reload_epoch@market@internal@tbb@@AAEXXZ 1001a010 f i market.obj
 0001:00019040       ?reset_global_priority@market@internal@tbb@@AAEXXZ 1001a040 f i market.obj
 0001:00019060       ?assume_scheduler@governor@internal@tbb@@SAXPAVgeneric_scheduler@23@@Z 1001a060 f i market.obj
 0001:00019080       ??_H@YGXPAXIHP6EPAX0@Z@Z   1001a080 f i market.obj
 0001:000190b0       ??0?$intrusive_list_base@V?$intrusive_list@Varena@internal@tbb@@@internal@tbb@@Varena@23@@internal@tbb@@QAE@XZ 1001a0b0 f i market.obj
 0001:000190f0       ??0intrusive_list_node@internal@tbb@@QAE@XZ 1001a0f0 f i market.obj
 0001:00019110       ?empty@?$intrusive_list_base@V?$intrusive_list@Varena@internal@tbb@@@internal@tbb@@Varena@23@@internal@tbb@@QBE_NXZ 1001a110 f i market.obj
 0001:00019130       ?size@?$intrusive_list_base@V?$intrusive_list@Varena@internal@tbb@@@internal@tbb@@Varena@23@@internal@tbb@@QBEIXZ 1001a130 f i market.obj
 0001:00019150       ?push_front@?$intrusive_list_base@V?$intrusive_list@Varena@internal@tbb@@@internal@tbb@@Varena@23@@internal@tbb@@QAEXAAVarena@23@@Z 1001a150 f i market.obj
 0001:00019220       ?remove@?$intrusive_list_base@V?$intrusive_list@Varena@internal@tbb@@@internal@tbb@@Varena@23@@internal@tbb@@QAEXAAVarena@23@@Z 1001a220 f i market.obj
 0001:00019380       ??0iterator@?$intrusive_list_base@V?$intrusive_list@Varena@internal@tbb@@@internal@tbb@@Varena@23@@internal@tbb@@QAE@XZ 1001a380 f i market.obj
 0001:000193a0       ??Citerator@?$intrusive_list_base@V?$intrusive_list@Varena@internal@tbb@@@internal@tbb@@Varena@23@@internal@tbb@@QBEPAVarena@23@XZ 1001a3a0 f i market.obj
 0001:000193c0       ??8?$iterator_impl@Viterator@?$intrusive_list_base@V?$intrusive_list@Varena@internal@tbb@@@internal@tbb@@Varena@23@@internal@tbb@@@?$intrusive_list_base@V?$intrusive_list@Varena@internal@tbb@@@internal@tbb@@Varena@23@@internal@tbb@@QBE_NABViterator@123@@Z 1001a3c0 f i market.obj
 0001:000193e0       ?node@?$intrusive_list_base@V?$intrusive_list@Varena@internal@tbb@@@internal@tbb@@Varena@23@@internal@tbb@@CAAAUintrusive_list_node@23@AAVarena@23@@Z 1001a3e0 f i market.obj
 0001:00019400       ?assert_ok@?$intrusive_list_base@V?$intrusive_list@Varena@internal@tbb@@@internal@tbb@@Varena@23@@internal@tbb@@ABEXXZ 1001a400 f i market.obj
 0001:00019450       ??0?$iterator_impl@Viterator@?$intrusive_list_base@V?$intrusive_list@Varena@internal@tbb@@@internal@tbb@@Varena@23@@internal@tbb@@@?$intrusive_list_base@V?$intrusive_list@Varena@internal@tbb@@@internal@tbb@@Varena@23@@internal@tbb@@QAE@XZ 1001a450 f i market.obj
 0001:00019480       ?node@?$intrusive_list@Varena@internal@tbb@@@internal@tbb@@CAAAUintrusive_list_node@23@AAVarena@23@@Z 1001a480 f i market.obj
 0001:00019490       ??$max@II@internal@tbb@@YAIABI0@Z 1001a490 f i market.obj
 0001:000194c0       ??$min@II@internal@tbb@@YAIABI0@Z 1001a4c0 f i market.obj
 0001:000194f0       ??$min@HH@internal@tbb@@YAHABH0@Z 1001a4f0 f i market.obj
 0001:00019520       ??$max@HH@internal@tbb@@YAHABH0@Z 1001a520 f i market.obj
 0001:00019570       ?process@arena@internal@tbb@@AAEXAAVgeneric_scheduler@23@@Z 1001a570 f   arena.obj
 0001:00019b00       ??0arena@internal@tbb@@AAE@AAVmarket@12@I@Z 1001ab00 f   arena.obj
 0001:00019e40       ?allocate_arena@arena@internal@tbb@@CAAAV123@AAVmarket@23@I@Z 1001ae40 f   arena.obj
 0001:00019f90       ?free_arena@arena@internal@tbb@@AAEXXZ 1001af90 f   arena.obj
 0001:0001a210       ?is_out_of_work@arena@internal@tbb@@AAE_NXZ 1001b210 f   arena.obj
 0001:0001a6a0       ?workers_task_node_count@arena@internal@tbb@@AAEHXZ 1001b6a0 f   arena.obj
 0001:0001a720       ?__TBB_set_cpu_ctl_env@@YAXPBU__TBB_cpu_ctl_env_t@@@Z 1001b720 f i arena.obj
 0001:0001a730       ?get@FastRandom@internal@tbb@@QAEGXZ 1001b730 f i arena.obj
 0001:0001a750       ?get@FastRandom@internal@tbb@@QAEGAAI@Z 1001b750 f i arena.obj
 0001:0001a790       ?detach@mail_inbox@internal@tbb@@QAEXXZ 1001b790 f i arena.obj
 0001:0001a7d0       ?is_idle_state@mail_inbox@internal@tbb@@QBE_N_N@Z 1001b7d0 f i arena.obj
 0001:0001a810       ?on_thread_leaving@arena@internal@tbb@@AAEX_N@Z 1001b810 f i arena.obj
 0001:0001a860       ?attach_mailbox@generic_scheduler@internal@tbb@@AAEXG@Z 1001b860 f i arena.obj
 0001:0001a8c0       ?attach@mail_inbox@internal@tbb@@QAEXAAVmail_outbox@23@@Z 1001b8c0 f i arena.obj
 0001:0001a900       ?mailbox@arena@internal@tbb@@AAEAAVmail_outbox@23@G@Z 1001b900 f i arena.obj
 0001:0001a970       ?__TBB_get_cpu_ctl_env@@YAXPAU__TBB_cpu_ctl_env_t@@@Z 1001b970 f i arena.obj
 0001:0001a980       ?initialize@task_stream@internal@tbb@@QAEXI@Z 1001b980 f i arena.obj
 0001:0001aaf0       ??0?$padded@U?$queue_and_mutex@PAVtask@tbb@@Vspin_mutex@2@@internal@tbb@@@internal@tbb@@QAE@XZ 1001baf0 f i arena.obj
 0001:0001ab10       ??0?$padded_base@U?$queue_and_mutex@PAVtask@tbb@@Vspin_mutex@2@@internal@tbb@@$0BM@@internal@tbb@@QAE@XZ 1001bb10 f i arena.obj
 0001:0001ab30       ?construct@mail_outbox@internal@tbb@@QAEXXZ 1001bb30 f i arena.obj
 0001:0001abe0       ?num_slots_to_reserve@arena@internal@tbb@@CAII@Z 1001bbe0 f i arena.obj
 0001:0001ac10       ??0?$padded@Uarena_base@internal@tbb@@@internal@tbb@@QAE@XZ 1001bc10 f i arena.obj
 0001:0001ac30       ??1?$padded@Uarena_base@internal@tbb@@@internal@tbb@@QAE@XZ 1001bc30 f i arena.obj
 0001:0001ac50       ??0?$padded_base@Uarena_base@internal@tbb@@$0JE@@internal@tbb@@QAE@XZ 1001bc50 f i arena.obj
 0001:0001ac70       ??1?$padded_base@Uarena_base@internal@tbb@@$0JE@@internal@tbb@@QAE@XZ 1001bc70 f i arena.obj
 0001:0001ac90       ??0arena_base@internal@tbb@@QAE@XZ 1001bc90 f i arena.obj
 0001:0001acc0       ??0task_stream@internal@tbb@@QAE@XZ 1001bcc0 f i arena.obj
 0001:0001ad20       ??0FastRandom@internal@tbb@@QAE@I@Z 1001bd20 f i arena.obj
 0001:0001ad50       ??1task_stream@internal@tbb@@QAE@XZ 1001bd50 f i arena.obj
 0001:0001ada0       ??1arena_base@internal@tbb@@QAE@XZ 1001bda0 f i arena.obj
 0001:0001adc0       ?allocation_size@arena@internal@tbb@@CAHI@Z 1001bdc0 f i arena.obj
 0001:0001ade0       ?empty@task_stream@internal@tbb@@QAE_NXZ 1001bde0 f i arena.obj
 0001:0001ae00       ?drain@task_stream@internal@tbb@@QAEHXZ 1001be00 f i arena.obj
 0001:0001af40       ?clear_one_bit@internal@tbb@@YAXAAIH@Z 1001bf40 f i arena.obj
 0001:0001afa0       ??1?$_Deque_iterator@PAVtask@tbb@@V?$tbb_allocator@PAVtask@tbb@@@2@@std@@QAE@XZ 1001bfa0 f i arena.obj
 0001:0001afc0       ??1?$_Deque_const_iterator@PAVtask@tbb@@V?$tbb_allocator@PAVtask@tbb@@@2@@std@@QAE@XZ 1001bfc0 f i arena.obj
 0001:0001afe0       ??1_Iterator_base12@std@@QAE@XZ 1001bfe0 f i arena.obj
 0001:0001b050       ?_Orphan_me@_Iterator_base12@std@@QAEXXZ 1001c050 f i arena.obj
 0001:0001b0d0       ?drain@mail_outbox@internal@tbb@@QAEHXZ 1001c0d0 f i arena.obj
 0001:0001b120       ?update_task_node_count@market@internal@tbb@@QAEXH@Z 1001c120 f i arena.obj
 0001:0001b140       ??_Gtask_group_context@tbb@@QAEPAXI@Z 1001c140 f i arena.obj
 0001:0001b170       ??_Garena@internal@tbb@@QAEPAXI@Z 1001c170 f i arena.obj
 0001:0001b1a0       ??1arena@internal@tbb@@QAE@XZ 1001c1a0 f i arena.obj
 0001:0001b1c0       ?may_have_tasks@arena@internal@tbb@@AAE_NPAVgeneric_scheduler@23@AAUarena_slot@23@AA_N2@Z 1001c1c0 f i arena.obj
 0001:0001b2a0       ?worker_outermost_level@generic_scheduler@internal@tbb@@QBE_NXZ 1001c2a0 f i arena.obj
 0001:0001b2c0       ??0?$queue_and_mutex@PAVtask@tbb@@Vspin_mutex@2@@internal@tbb@@QAE@XZ 1001c2c0 f i arena.obj
 0001:0001b320       ?begin@?$deque@PAVtask@tbb@@V?$tbb_allocator@PAVtask@tbb@@@2@@std@@QAE?AV?$_Deque_iterator@PAVtask@tbb@@V?$tbb_allocator@PAVtask@tbb@@@2@@2@XZ 1001c320 f i arena.obj
 0001:0001b360       ?end@?$deque@PAVtask@tbb@@V?$tbb_allocator@PAVtask@tbb@@@2@@std@@QAE?AV?$_Deque_iterator@PAVtask@tbb@@V?$tbb_allocator@PAVtask@tbb@@@2@@2@XZ 1001c360 f i arena.obj
 0001:0001b3a0       ?clear@?$deque@PAVtask@tbb@@V?$tbb_allocator@PAVtask@tbb@@@2@@std@@QAEXXZ 1001c3a0 f i arena.obj
 0001:0001b3c0       ??D?$_Deque_iterator@PAVtask@tbb@@V?$tbb_allocator@PAVtask@tbb@@@2@@std@@QBEAAPAVtask@tbb@@XZ 1001c3c0 f i arena.obj
 0001:0001b3e0       ??E?$_Deque_iterator@PAVtask@tbb@@V?$tbb_allocator@PAVtask@tbb@@@2@@std@@QAEAAV01@XZ 1001c3e0 f i arena.obj
 0001:0001b400       ??9?$_Deque_const_iterator@PAVtask@tbb@@V?$tbb_allocator@PAVtask@tbb@@@2@@std@@QBE_NABV01@@Z 1001c400 f i arena.obj
 0001:0001b430       ??0?$deque@PAVtask@tbb@@V?$tbb_allocator@PAVtask@tbb@@@2@@std@@QAE@XZ 1001c430 f i arena.obj
 0001:0001b460       ??0?$_Deque_iterator@PAVtask@tbb@@V?$tbb_allocator@PAVtask@tbb@@@2@@std@@QAE@IPBU_Container_base12@1@@Z 1001c460 f i arena.obj
 0001:0001b480       ??D?$_Deque_const_iterator@PAVtask@tbb@@V?$tbb_allocator@PAVtask@tbb@@@2@@std@@QBEABQAVtask@tbb@@XZ 1001c480 f i arena.obj
 0001:0001b570       ?_Getcont@_Iterator_base12@std@@QBEPBU_Container_base12@2@XZ 1001c570 f i arena.obj
 0001:0001b5a0       ??E?$_Deque_const_iterator@PAVtask@tbb@@V?$tbb_allocator@PAVtask@tbb@@@2@@std@@QAEAAV01@XZ 1001c5a0 f i arena.obj
 0001:0001b650       ??8?$_Deque_const_iterator@PAVtask@tbb@@V?$tbb_allocator@PAVtask@tbb@@@2@@std@@QBE_NABV01@@Z 1001c650 f i arena.obj
 0001:0001b680       ??0?$_Deque_val@PAVtask@tbb@@V?$tbb_allocator@PAVtask@tbb@@@2@@std@@QAE@V?$tbb_allocator@PAVtask@tbb@@@tbb@@@Z 1001c680 f i arena.obj
 0001:0001b760       ??0_Container_proxy@std@@QAE@XZ 1001c760 f i arena.obj
 0001:0001b790       ??0?$tbb_allocator@PAVtask@tbb@@@tbb@@QAE@XZ 1001c790 f i arena.obj
 0001:0001b7a0       ??0?$_Deque_const_iterator@PAVtask@tbb@@V?$tbb_allocator@PAVtask@tbb@@@2@@std@@QAE@IPBU_Container_base12@1@@Z 1001c7a0 f i arena.obj
 0001:0001b810       ??0_Iterator_base12@std@@QAE@XZ 1001c810 f i arena.obj
 0001:0001b840       ?_Compat@?$_Deque_const_iterator@PAVtask@tbb@@V?$tbb_allocator@PAVtask@tbb@@@2@@std@@QBEXABV12@@Z 1001c840 f i arena.obj
 0001:0001b8e0       ??0?$tbb_allocator@PAVtask@tbb@@@tbb@@QAE@ABV01@@Z 1001c8e0 f i arena.obj
 0001:0001b8f0       ?_Setcont@?$_Deque_const_iterator@PAVtask@tbb@@V?$tbb_allocator@PAVtask@tbb@@@2@@std@@QAEXPBV?$deque@PAVtask@tbb@@V?$tbb_allocator@PAVtask@tbb@@@2@@2@@Z 1001c8f0 f i arena.obj
 0001:0001b910       ?_Adopt@_Iterator_base12@std@@QAEXPBU_Container_base12@2@@Z 1001c910 f i arena.obj
 0001:0001b9b0       ?allocate@?$tbb_allocator@U_Container_proxy@std@@@tbb@@QAEPAU_Container_proxy@std@@IPBX@Z 1001c9b0 f i arena.obj
 0001:0001b9d0       ??$atomic_update@IIU?$less@I@std@@@internal@tbb@@YAIAAU?$atomic@I@1@IU?$less@I@std@@@Z 1001c9d0 f i arena.obj
 0001:0001ba30       ??$suppress_unused_warning@Uarena_slot@internal@tbb@@@internal@tbb@@YAXABUarena_slot@01@@Z 1001ca30 f i arena.obj
 0001:0001ba40       ??$__TBB_load_with_acquire@PAVtask@tbb@@@internal@tbb@@YAPAVtask@1@ADSAV21@@Z 1001ca40 f i arena.obj
 0001:0001ba60       ??$atomic_update@HHU?$less@H@std@@@internal@tbb@@YAHAAU?$atomic@H@1@HU?$less@H@std@@@Z 1001ca60 f i arena.obj
 0001:0001bac0       ??$advertise_new_work@$0A@@arena@internal@tbb@@AAEXXZ 1001cac0 f i arena.obj
 0001:0001bbe0       ?is_busy_or_empty@arena@internal@tbb@@CA_NI@Z 1001cbe0 f i arena.obj
 0001:0001bbf0       ??$?0PAVtask@tbb@@@?$tbb_allocator@PAPAVtask@tbb@@@tbb@@QAE@ABV?$tbb_allocator@PAVtask@tbb@@@1@@Z 1001cbf0 f i arena.obj
 0001:0001bc00       ??$_Cons_val@V?$tbb_allocator@U_Container_proxy@std@@@tbb@@U_Container_proxy@std@@U34@@std@@YAXAAV?$tbb_allocator@U_Container_proxy@std@@@tbb@@PAU_Container_proxy@0@$$QAU30@@Z 1001cc00 f i arena.obj
 0001:0001bc20       ??R?$less@I@std@@QBE_NABI0@Z 1001cc20 f i arena.obj
 0001:0001bc40       ??R?$less@H@std@@QBE_NABH0@Z 1001cc40 f i arena.obj
 0001:0001bc60       ?construct@?$tbb_allocator@U_Container_proxy@std@@@tbb@@QAEXPAU_Container_proxy@std@@ABU34@@Z 1001cc60 f i arena.obj
 0001:0001bcb0       ?load_with_acquire@?$machine_load_store@PAVtask@tbb@@$03@internal@tbb@@SAPAVtask@3@ADSAV43@@Z 1001ccb0 f i arena.obj
 0001:0001bcd0       ??$forward@U_Container_proxy@std@@@std@@YA$$QAU_Container_proxy@0@AAU10@@Z 1001ccd0 f i arena.obj
 0001:0001bce0       ?Scheduler_OneTimeInitialization@internal@tbb@@YAX_N@Z 1001cce0 f   scheduler.obj
 0001:0001bd20       ??1scheduler@internal@tbb@@UAE@XZ 1001cd20 f   scheduler.obj
 0001:0001bd40       ??0generic_scheduler@internal@tbb@@IAE@PAVarena@12@I@Z 1001cd40 f   scheduler.obj
 0001:0001c070       ?fill_with_canary_pattern@generic_scheduler@internal@tbb@@KAXPAPAVtask@3@II@Z 1001d070 f   scheduler.obj
 0001:0001c0b0       ?init_stack_info@generic_scheduler@internal@tbb@@AAEXXZ 1001d0b0 f   scheduler.obj
 0001:0001c190       ?cleanup_local_context_list@generic_scheduler@internal@tbb@@QAEXXZ 1001d190 f   scheduler.obj
 0001:0001c330       ?free_scheduler@generic_scheduler@internal@tbb@@QAEXXZ 1001d330 f   scheduler.obj
 0001:0001c4a0       ?allocate_task@generic_scheduler@internal@tbb@@QAEAAVtask@3@IPAV43@PAVtask_group_context@3@@Z 1001d4a0 f   scheduler.obj
 0001:0001c690       ?free_nonlocal_small_task@generic_scheduler@internal@tbb@@QAEXAAVtask@3@@Z 1001d690 f   scheduler.obj
 0001:0001c7c0       ?prepare_task_pool@generic_scheduler@internal@tbb@@AAEII@Z 1001d7c0 f   scheduler.obj
 0001:0001c950       ?local_spawn@generic_scheduler@internal@tbb@@QAEXAAVtask@3@AAPAV43@@Z 1001d950 f   scheduler.obj
 0001:0001cb60       ?local_spawn_root_and_wait@generic_scheduler@internal@tbb@@QAEXAAVtask@3@AAPAV43@@Z 1001db60 f   scheduler.obj
 0001:0001cd30       ?local_enqueue@generic_scheduler@internal@tbb@@QAEXAAVtask@3@W4priority_t@3@@Z 1001dd30 f   scheduler.obj
 0001:0001cf80       ?winnow_task_pool@generic_scheduler@internal@tbb@@QAEPAVtask@3@XZ 1001df80 f   scheduler.obj
 0001:0001d3d0       ?reload_tasks@generic_scheduler@internal@tbb@@QAEPAVtask@3@AAPAV43@AAPAPAV43@H@Z 1001e3d0 f   scheduler.obj
 0001:0001d730       ?reload_tasks@generic_scheduler@internal@tbb@@QAEPAVtask@3@XZ 1001e730 f   scheduler.obj
 0001:0001d870       ?steal_task@generic_scheduler@internal@tbb@@AAEPAVtask@3@AAUarena_slot@23@@Z 1001e870 f   scheduler.obj
 0001:0001dae0       ?enter_arena@generic_scheduler@internal@tbb@@AAEXXZ 1001eae0 f   scheduler.obj
 0001:0001dbb0       ?leave_arena@generic_scheduler@internal@tbb@@AAEXXZ 1001ebb0 f   scheduler.obj
 0001:0001dcd0       ?create_worker@generic_scheduler@internal@tbb@@CAPAV123@AAVmarket@23@I@Z 1001ecd0 f   scheduler.obj
 0001:0001dd50       ?create_master@generic_scheduler@internal@tbb@@CAPAV123@AAVarena@23@@Z 1001ed50 f   scheduler.obj
 0001:0001df40       ?cleanup_worker@generic_scheduler@internal@tbb@@CAXPAX_N@Z 1001ef40 f   scheduler.obj
 0001:0001dff0       ?cleanup_master@generic_scheduler@internal@tbb@@AAEXXZ 1001eff0 f   scheduler.obj
 0001:0001e210       ?notify_entry_observers@generic_scheduler@internal@tbb@@AAEXXZ 1001f210 f   scheduler.obj
 0001:0001e240       ?notify_exit_observers@generic_scheduler@internal@tbb@@AAEX_N@Z 1001f240 f   scheduler.obj
 0001:0001e280       ??0mail_inbox@internal@tbb@@QAE@XZ 1001f280 f i scheduler.obj
 0001:0001e2a0       ?spawn@generic_scheduler@internal@tbb@@UAEXAAVtask@3@AAPAV43@@Z 1001f2a0 f i scheduler.obj
 0001:0001e2d0       ?spawn_root_and_wait@generic_scheduler@internal@tbb@@UAEXAAVtask@3@AAPAV43@@Z 1001f2d0 f i scheduler.obj
 0001:0001e300       ?enqueue@generic_scheduler@internal@tbb@@UAEXAAVtask@3@PAX@Z 1001f300 f i scheduler.obj
 0001:0001e330       ?allocate_task_pool@generic_scheduler@internal@tbb@@AAEPAPAVtask@3@I@Z 1001f330 f i scheduler.obj
 0001:0001e390       ??_Egeneric_scheduler@internal@tbb@@UAEPAXI@Z 1001f390 f i scheduler.obj
 0001:0001e390       ??_Ggeneric_scheduler@internal@tbb@@UAEPAXI@Z 1001f390 f i scheduler.obj
 0001:0001e3c0       ??0scheduler@internal@tbb@@QAE@XZ 1001f3c0 f i scheduler.obj
 0001:0001e3f0       ??1generic_scheduler@internal@tbb@@UAE@XZ 1001f3f0 f i scheduler.obj
 0001:0001e410       _NtCurrentTeb              1001f410 f i scheduler.obj
 0001:0001e420       ?is_worker@generic_scheduler@internal@tbb@@QAE_NXZ 1001f420 f i scheduler.obj
 0001:0001e440       ??0scoped_lock@spin_mutex@tbb@@QAE@XZ 1001f440 f i scheduler.obj
 0001:0001e470       ?acquire@scoped_lock@spin_mutex@tbb@@QAEXAAV23@@Z 1001f470 f i scheduler.obj
 0001:0001e490       ?free_task_pool@generic_scheduler@internal@tbb@@CAXPAPAVtask@3@@Z 1001f490 f i scheduler.obj
 0001:0001e4d0       ?plugged_return_list@generic_scheduler@internal@tbb@@SAPAVtask@3@XZ 1001f4d0 f i scheduler.obj
 0001:0001e4e0       ?in_arena@generic_scheduler@internal@tbb@@ABE_NXZ 1001f4e0 f i scheduler.obj
 0001:0001e500       ?commit_relocated_tasks@generic_scheduler@internal@tbb@@AAEXI@Z 1001f500 f i scheduler.obj
 0001:0001e580       ?acquire_task_pool@generic_scheduler@internal@tbb@@ABEXXZ 1001f580 f i scheduler.obj
 0001:0001e6e0       ?release_task_pool@generic_scheduler@internal@tbb@@ABEXXZ 1001f6e0 f i scheduler.obj
 0001:0001e790       ?commit_spawned_tasks@generic_scheduler@internal@tbb@@AAEXI@Z 1001f790 f i scheduler.obj
 0001:0001e800       ?prepare_for_spawning@generic_scheduler@internal@tbb@@AAEPAVtask@3@PAV43@@Z 1001f800 f i scheduler.obj
 0001:0001e9d0       ?push@mail_outbox@internal@tbb@@QAEXAAUtask_proxy@23@@Z 1001f9d0 f i scheduler.obj
 0001:0001ea40       ?is_version_3_task@generic_scheduler@internal@tbb@@CA_NAAVtask@3@@Z 1001fa40 f i scheduler.obj
 0001:0001ea60       ??0auto_empty_task@internal@tbb@@QAE@PAVgeneric_scheduler@12@PAVtask_group_context@2@@Z 1001fa60 f i scheduler.obj
 0001:0001eb00       ??1auto_empty_task@internal@tbb@@QAE@XZ 1001fb00 f i scheduler.obj
 0001:0001eb20       ??Bauto_empty_task@internal@tbb@@QAEAAVtask@2@XZ 1001fb20 f i scheduler.obj
 0001:0001eb30       ??Iauto_empty_task@internal@tbb@@QAEPAVtask@2@XZ 1001fb30 f i scheduler.obj
 0001:0001eb40       ?prefix@auto_empty_task@internal@tbb@@QAEAAVtask_prefix@23@XZ 1001fb40 f i scheduler.obj
 0001:0001eb60       ??0empty_task@tbb@@QAE@XZ  1001fb60 f i scheduler.obj
 0001:0001eb80       ?execute@empty_task@tbb@@EAEPAVtask@2@XZ 1001fb80 f i scheduler.obj
 0001:0001eb90       ??_Gempty_task@tbb@@UAEPAXI@Z 1001fb90 f i scheduler.obj
 0001:0001eb90       ??_Eempty_task@tbb@@UAEPAXI@Z 1001fb90 f i scheduler.obj
 0001:0001ebc0       ??1empty_task@tbb@@UAE@XZ  1001fbc0 f i scheduler.obj
 0001:0001ebe0       ?assert_priority_valid@internal@tbb@@YAXAAH@Z 1001fbe0 f i scheduler.obj
 0001:0001ec10       ?push@task_stream@internal@tbb@@QAEXPAVtask@3@AAI@Z 1001fc10 f i scheduler.obj
 0001:0001ecf0       ?try_acquire@scoped_lock@spin_mutex@tbb@@QAE_NAAV23@@Z 1001fcf0 f i scheduler.obj
 0001:0001ed10       ?set_one_bit@internal@tbb@@YAXAAIH@Z 1001fd10 f i scheduler.obj
 0001:0001ed70       ?priority@internal@tbb@@YAAAHAAVtask@2@@Z 1001fd70 f i scheduler.obj
 0001:0001ed90       ?reset_deque_and_leave_arena@generic_scheduler@internal@tbb@@AAEX_N@Z 1001fd90 f i scheduler.obj
 0001:0001ede0       ?offload_task@generic_scheduler@internal@tbb@@QAEXAAVtask@3@H@Z 1001fde0 f i scheduler.obj
 0001:0001ee60       ??0auto_indicator@internal@tbb@@QAE@AC_N@Z 1001fe60 f i scheduler.obj
 0001:0001ee90       ??1auto_indicator@internal@tbb@@QAE@XZ 1001fe90 f i scheduler.obj
 0001:0001eeb0       ?effective_reference_priority@generic_scheduler@internal@tbb@@QBEHXZ 1001feb0 f i scheduler.obj
 0001:0001ef10       ?is_shared@task_proxy@internal@tbb@@SA_NH@Z 1001ff10 f i scheduler.obj
 0001:0001ef30       ?recipient_is_idle@mail_outbox@internal@tbb@@QAE_NXZ 1001ff30 f i scheduler.obj
 0001:0001ef50       ?is_proxy@generic_scheduler@internal@tbb@@CA_NABVtask@3@@Z 1001ff50 f i scheduler.obj
 0001:0001ef70       ?lock_task_pool@generic_scheduler@internal@tbb@@ABEPAPAVtask@3@PAUarena_slot@23@@Z 1001ff70 f i scheduler.obj
 0001:0001f060       ?unlock_task_pool@generic_scheduler@internal@tbb@@ABEXPAUarena_slot@23@PAPAVtask@3@@Z 10020060 f i scheduler.obj
 0001:0001f0f0       ?do_enter_arena@generic_scheduler@internal@tbb@@AAEXXZ 100200f0 f i scheduler.obj
 0001:0001f230       ?is_quiescent_local_task_pool_empty@generic_scheduler@internal@tbb@@ABE_NXZ 10020230 f i scheduler.obj
 0001:0001f2a0       ?is_local_task_pool_quiescent@generic_scheduler@internal@tbb@@ABE_NXZ 100202a0 f i scheduler.obj
 0001:0001f2f0       ?allocate_scheduler@internal@tbb@@YAPAVgeneric_scheduler@12@PAVarena@12@I@Z 100202f0 f i scheduler.obj
 0001:0001f310       ?register_master@market@internal@tbb@@QAEXAAPAX@Z 10020310 f i scheduler.obj
 0001:0001f360       ?unregister_master@market@internal@tbb@@QBEXAAPAX@Z 10020360 f i scheduler.obj
 0001:0001f390       ?push_back@?$deque@PAVtask@tbb@@V?$tbb_allocator@PAVtask@tbb@@@2@@std@@QAEXABQAVtask@tbb@@@Z 10020390 f i scheduler.obj
 0001:0001f480       ?allocate_scheduler@?$custom_scheduler@UDefaultSchedulerTraits@internal@tbb@@@internal@tbb@@SAPAVgeneric_scheduler@23@PAVarena@23@I@Z 10020480 f i scheduler.obj
 0001:0001f550       ?allocate_scheduler@?$custom_scheduler@UIntelSchedulerTraits@internal@tbb@@@internal@tbb@@SAPAVgeneric_scheduler@23@PAVarena@23@I@Z 10020550 f i scheduler.obj
 0001:0001f620       ??0?$fast_reverse_vector@PAVtask@tbb@@$0BA@@internal@tbb@@QAE@PAPAVtask@2@I@Z 10020620 f i scheduler.obj
 0001:0001f690       ??1?$fast_reverse_vector@PAVtask@tbb@@$0BA@@internal@tbb@@QAE@XZ 10020690 f i scheduler.obj
 0001:0001f6d0       ?size@?$fast_reverse_vector@PAVtask@tbb@@$0BA@@internal@tbb@@QBEIXZ 100206d0 f i scheduler.obj
 0001:0001f6f0       ?push_back@?$fast_reverse_vector@PAVtask@tbb@@$0BA@@internal@tbb@@QAEXABQAVtask@3@@Z 100206f0 f i scheduler.obj
 0001:0001f7f0       ?copy_memory@?$fast_reverse_vector@PAVtask@tbb@@$0BA@@internal@tbb@@QBEXPAPAVtask@3@@Z 100207f0 f i scheduler.obj
 0001:0001f8a0       ?_Growmap@?$deque@PAVtask@tbb@@V?$tbb_allocator@PAVtask@tbb@@@2@@std@@IAEXI@Z 100208a0 f i scheduler.obj
 0001:0001fab0       ?allocate@?$tbb_allocator@PAVtask@tbb@@@tbb@@QAEPAPAVtask@2@IPBX@Z 10020ab0 f i scheduler.obj
 0001:0001fad0       ??0?$custom_scheduler@UDefaultSchedulerTraits@internal@tbb@@@internal@tbb@@AAE@PAVarena@12@I@Z 10020ad0 f i scheduler.obj
 0001:0001fb00       ?wait_for_all@?$custom_scheduler@UDefaultSchedulerTraits@internal@tbb@@@internal@tbb@@EAEXAAVtask@3@PAV43@@Z 10020b00 f i scheduler.obj
 0001:0001fb30       ??0?$custom_scheduler@UIntelSchedulerTraits@internal@tbb@@@internal@tbb@@AAE@PAVarena@12@I@Z 10020b30 f i scheduler.obj
 0001:0001fb60       ?wait_for_all@?$custom_scheduler@UIntelSchedulerTraits@internal@tbb@@@internal@tbb@@EAEXAAVtask@3@PAV43@@Z 10020b60 f i scheduler.obj
 0001:0001fb90       ??_G?$custom_scheduler@UDefaultSchedulerTraits@internal@tbb@@@internal@tbb@@UAEPAXI@Z 10020b90 f i scheduler.obj
 0001:0001fb90       ??_E?$custom_scheduler@UDefaultSchedulerTraits@internal@tbb@@@internal@tbb@@UAEPAXI@Z 10020b90 f i scheduler.obj
 0001:0001fbc0       ??_E?$custom_scheduler@UIntelSchedulerTraits@internal@tbb@@@internal@tbb@@UAEPAXI@Z 10020bc0 f i scheduler.obj
 0001:0001fbc0       ??_G?$custom_scheduler@UIntelSchedulerTraits@internal@tbb@@@internal@tbb@@UAEPAXI@Z 10020bc0 f i scheduler.obj
 0001:0001fbf0       ??1?$custom_scheduler@UDefaultSchedulerTraits@internal@tbb@@@internal@tbb@@UAE@XZ 10020bf0 f i scheduler.obj
 0001:0001fc10       ??1?$custom_scheduler@UIntelSchedulerTraits@internal@tbb@@@internal@tbb@@UAE@XZ 10020c10 f i scheduler.obj
 0001:0001fc30       ?max_size@?$deque@PAVtask@tbb@@V?$tbb_allocator@PAVtask@tbb@@@2@@std@@QBEIXZ 10020c30 f i scheduler.obj
 0001:0001fc50       ?_Xlen@?$deque@PAVtask@tbb@@V?$tbb_allocator@PAVtask@tbb@@@2@@std@@IBEXXZ 10020c50 f i scheduler.obj
 0001:0001fc70       ?allocate@?$tbb_allocator@PAPAVtask@tbb@@@tbb@@QAEPAPAPAVtask@2@IPBX@Z 10020c70 f i scheduler.obj
 0001:0001fc90       ?max_size@?$tbb_allocator@PAVtask@tbb@@@tbb@@QBEIXZ 10020c90 f i scheduler.obj
 0001:0001fcc0       ??$__TBB_store_relaxed@PAUtask_proxy@internal@tbb@@PAU123@@internal@tbb@@YAXACRAUtask_proxy@01@PAU201@@Z 10020cc0 f i scheduler.obj
 0001:0001fce0       ??$free_task@$02@generic_scheduler@internal@tbb@@QAEXAAVtask@2@@Z 10020ce0 f i scheduler.obj
 0001:0001fdf0       ?local_wait_for_all@?$custom_scheduler@UDefaultSchedulerTraits@internal@tbb@@@internal@tbb@@EAEXAAVtask@3@PAV43@@Z 10020df0 f i scheduler.obj
 0001:00020cd0       ?ref_count@task@tbb@@QBEHXZ 10021cd0 f i scheduler.obj
 0001:00020d20       ?throw_self@tbb_exception_ptr@internal@tbb@@QAEXXZ 10021d20 f i scheduler.obj
 0001:00020d50       ?rethrow_exception@std@@YAXV_Exception_ptr@1@@Z 10021d50 f i scheduler.obj
 0001:00020da0       ?_RethrowException@_Exception_ptr@std@@QBEXXZ 10021da0 f i scheduler.obj
 0001:00020dc0       ?reset_extra_state@internal@tbb@@YAXPAVtask@2@@Z 10021dc0 f i scheduler.obj
 0001:00020df0       ?ConcurrentWaitsEnabled@internal@tbb@@YA_NAAVtask@2@@Z 10021df0 f i scheduler.obj
 0001:00020e20       ?CancellationInfoPresent@internal@tbb@@YA_NAAVtask@2@@Z 10021e20 f i scheduler.obj
 0001:00020e40       ?is_quiescent_local_task_pool_reset@generic_scheduler@internal@tbb@@ABE_NXZ 10021e40 f i scheduler.obj
 0001:00020ec0       ?get_task@generic_scheduler@internal@tbb@@AAEPAVtask@3@XZ 10021ec0 f i scheduler.obj
 0001:000211b0       ?receive_or_steal_task@?$custom_scheduler@UDefaultSchedulerTraits@internal@tbb@@@internal@tbb@@UAEPAVtask@3@AAH_N@Z 100221b0 f i scheduler.obj
 0001:00021850       ?set_is_idle@mail_inbox@internal@tbb@@QAEX_N@Z 10022850 f i scheduler.obj
 0001:000218b0       ?can_steal@generic_scheduler@internal@tbb@@AAE_NXZ 100228b0 f i scheduler.obj
 0001:000218d0       ?get_mailbox_task@generic_scheduler@internal@tbb@@AAEPAVtask@3@XZ 100228d0 f i scheduler.obj
 0001:00021980       ?pop@mail_inbox@internal@tbb@@QAEPAUtask_proxy@23@XZ 10022980 f i scheduler.obj
 0001:000219a0       ?internal_pop@mail_outbox@internal@tbb@@AAEPAUtask_proxy@23@XZ 100229a0 f i scheduler.obj
 0001:00021a70       ?outbox@mail_inbox@internal@tbb@@QBEPAXXZ 10022a70 f i scheduler.obj
 0001:00021a80       ?dequeue_task@generic_scheduler@internal@tbb@@AAEPAVtask@3@XZ 10022a80 f i scheduler.obj
 0001:00021af0       ?pop@task_stream@internal@tbb@@QAEXAAPAVtask@3@AAI@Z 10022af0 f i scheduler.obj
 0001:00021c40       ?is_bit_set@internal@tbb@@YA_NIH@Z 10022c40 f i scheduler.obj
 0001:00021ca0       ?front@?$deque@PAVtask@tbb@@V?$tbb_allocator@PAVtask@tbb@@@2@@std@@QAEAAPAVtask@tbb@@XZ 10022ca0 f i scheduler.obj
 0001:00021d10       ?pop_front@?$deque@PAVtask@tbb@@V?$tbb_allocator@PAVtask@tbb@@@2@@std@@QAEXXZ 10022d10 f i scheduler.obj
 0001:00021df0       ??$__TBB_load_relaxed@PAUtask_proxy@internal@tbb@@@internal@tbb@@YAPAUtask_proxy@01@ADSAU201@@Z 10022df0 f i scheduler.obj
 0001:00021e10       ?local_wait_for_all@?$custom_scheduler@UIntelSchedulerTraits@internal@tbb@@@internal@tbb@@EAEXAAVtask@3@PAV43@@Z 10022e10 f i scheduler.obj
 0001:00022ce0       ?receive_or_steal_task@?$custom_scheduler@UIntelSchedulerTraits@internal@tbb@@@internal@tbb@@UAEPAVtask@3@AAH_N@Z 10023ce0 f i scheduler.obj
 0001:00023350       ??$make_atomic@I@interface6@tbb@@YA?AU?$atomic@I@1@I@Z 10024350 f i scheduler.obj
 0001:00023380       ??$__TBB_store_with_release@PAPAVtask@tbb@@PAPAV12@@internal@tbb@@YAXACRAPAVtask@1@PAPAV21@@Z 10024380 f i scheduler.obj
 0001:000233a0       ??$advertise_new_work@$00@arena@internal@tbb@@AAEXXZ 100243a0 f i scheduler.obj
 0001:000234c0       ??$extract_task@$01@task_proxy@internal@tbb@@QAEPAVtask@2@XZ 100244c0 f i scheduler.obj
 0001:000235e0       ?task_ptr@task_proxy@internal@tbb@@SAPAVtask@3@H@Z 100245e0 f i scheduler.obj
 0001:000235f0       ??$free_task@$01@generic_scheduler@internal@tbb@@QAEXAAVtask@2@@Z 100245f0 f i scheduler.obj
 0001:00023710       ??$is_poisoned@Vtask@tbb@@@internal@tbb@@YA_NPAVtask@1@@Z 10024710 f i scheduler.obj
 0001:00023720       ??$extract_task@$00@task_proxy@internal@tbb@@QAEPAVtask@2@XZ 10024720 f i scheduler.obj
 0001:00023840       ??$__TBB_store_relaxed@PAPAVtask@tbb@@PAPAV12@@internal@tbb@@YAXACRAPAVtask@1@PAPAV21@@Z 10024840 f i scheduler.obj
 0001:00023860       ??$_Cons_val@V?$tbb_allocator@PAVtask@tbb@@@tbb@@PAVtask@2@ABQAV32@@std@@YAXAAV?$tbb_allocator@PAVtask@tbb@@@tbb@@PAPAVtask@2@ABQAV32@@Z 10024860 f i scheduler.obj
 0001:00023880       ??$_Uninitialized_copy@PAPAPAVtask@tbb@@PAPAPAV12@V?$tbb_allocator@PAPAVtask@tbb@@@2@@std@@YAPAPAPAVtask@tbb@@PAPAPAV12@00AAV?$tbb_allocator@PAPAVtask@tbb@@@2@@Z 10024880 f i scheduler.obj
 0001:000238c0       ??$_Uninitialized_default_fill_n@PAPAPAVtask@tbb@@IPAPAV12@V?$tbb_allocator@PAPAVtask@tbb@@@2@@std@@YAXPAPAPAVtask@tbb@@IPBQAPAV12@AAV?$tbb_allocator@PAPAVtask@tbb@@@2@@Z 100248c0 f i scheduler.obj
 0001:00023910       ??$_Destroy_range@V?$tbb_allocator@PAPAVtask@tbb@@@tbb@@@std@@YAXPAPAPAVtask@tbb@@0AAV?$tbb_allocator@PAPAVtask@tbb@@@2@@Z 10024910 f i scheduler.obj
 0001:00023950       ?construct@?$tbb_allocator@PAVtask@tbb@@@tbb@@QAEXPAPAVtask@2@ABQAV32@@Z 10024950 f i scheduler.obj
 0001:00023990       ?tally_completion_of_predecessor@?$custom_scheduler@UDefaultSchedulerTraits@internal@tbb@@@internal@tbb@@AAEXAAVtask@3@AAPAV43@@Z 10024990 f i scheduler.obj
 0001:00023a80       ?tally_completion_of_predecessor@?$custom_scheduler@UIntelSchedulerTraits@internal@tbb@@@internal@tbb@@AAEXAAVtask@3@AAPAV43@@Z 10024a80 f i scheduler.obj
 0001:00023b70       ?load@?$machine_load_store_relaxed@PAUtask_proxy@internal@tbb@@$03@internal@tbb@@SAPAUtask_proxy@23@ADSAU423@@Z 10024b70 f i scheduler.obj
 0001:00023b80       ?store@?$machine_load_store_relaxed@PAUtask_proxy@internal@tbb@@$03@internal@tbb@@SAXACRAUtask_proxy@23@PAU423@@Z 10024b80 f i scheduler.obj
 0001:00023b90       ?store_with_release@?$machine_load_store@PAPAVtask@tbb@@$03@internal@tbb@@SAXACRAPAVtask@3@PAPAV43@@Z 10024b90 f i scheduler.obj
 0001:00023ba0       ?store@?$machine_load_store_relaxed@PAPAVtask@tbb@@$03@internal@tbb@@SAXACRAPAVtask@3@PAPAV43@@Z 10024ba0 f i scheduler.obj
 0001:00023bb0       ??$store@$02I@tbb@@YAXAAU?$atomic@I@0@I@Z 10024bb0 f i scheduler.obj
 0001:00023bd0       ??$poison_pointer@Vmail_outbox@internal@tbb@@@internal@tbb@@YAXAAPAVmail_outbox@01@@Z 10024bd0 f i scheduler.obj
 0001:00023be0       ??$poison_pointer@Utask_proxy@internal@tbb@@@internal@tbb@@YAXAAPAUtask_proxy@01@@Z 10024be0 f i scheduler.obj
 0001:00023bf0       ??$forward@ABQAVtask@tbb@@@std@@YAABQAVtask@tbb@@ABQAV12@@Z 10024bf0 f i scheduler.obj
 0001:00023c00       ??$_Ptr_cat@PAPAVtask@tbb@@PAPAV12@@std@@YA?AU_Scalar_ptr_iterator_tag@0@PAPAPAVtask@tbb@@0@Z 10024c00 f i scheduler.obj
 0001:00023c10       ??$_Uninit_copy@PAPAPAVtask@tbb@@PAPAPAV12@V?$tbb_allocator@PAPAVtask@tbb@@@2@@std@@YAPAPAPAVtask@tbb@@PAPAPAV12@00AAV?$tbb_allocator@PAPAVtask@tbb@@@2@U_Scalar_ptr_iterator_tag@0@@Z 10024c10 f i scheduler.obj
 0001:00023c40       ??$_Val_type@PAPAPAVtask@tbb@@@std@@YAPAPAPAVtask@tbb@@PAPAPAV12@@Z 10024c40 f i scheduler.obj
 0001:00023c50       ??$_Uninit_def_fill_n@PAPAPAVtask@tbb@@IPAPAV12@V?$tbb_allocator@PAPAVtask@tbb@@@2@PAPAV12@@std@@YAXPAPAPAVtask@tbb@@IPBQAPAV12@AAV?$tbb_allocator@PAPAVtask@tbb@@@2@0U_Scalar_ptr_iterator_tag@0@@Z 10024c50 f i scheduler.obj
 0001:00023c80       ??$_Destroy_range@V?$tbb_allocator@PAPAVtask@tbb@@@tbb@@@std@@YAXPAPAPAVtask@tbb@@0AAV?$tbb_allocator@PAPAVtask@tbb@@@2@U_Scalar_ptr_iterator_tag@0@@Z 10024c80 f i scheduler.obj
 0001:00023c90       ??$_Uninit_copy@PAPAPAVtask@tbb@@PAPAPAV12@V?$tbb_allocator@PAPAVtask@tbb@@@2@@std@@YAPAPAPAVtask@tbb@@PAPAPAV12@00AAV?$tbb_allocator@PAPAVtask@tbb@@@2@U_Nonscalar_ptr_iterator_tag@0@@Z 10024c90 f i scheduler.obj
 0001:00023d90       ??$_Uninit_def_fill_n@PAPAPAVtask@tbb@@IPAPAV12@V?$tbb_allocator@PAPAVtask@tbb@@@2@PAPAV12@@std@@YAXPAPAPAVtask@tbb@@IPBQAPAV12@AAV?$tbb_allocator@PAPAVtask@tbb@@@2@0U_Nonscalar_ptr_iterator_tag@0@@Z 10024d90 f i scheduler.obj
 0001:00023e60       ??$_Debug_range@PAPAPAVtask@tbb@@@std@@YAXPAPAPAVtask@tbb@@0PB_WI@Z 10024e60 f i scheduler.obj
 0001:00023ea0       ??$_Debug_pointer@PAPAVtask@tbb@@@std@@YAXPAPAPAVtask@tbb@@PB_WI@Z 10024ea0 f i scheduler.obj
 0001:00023ed0       ??$_Cons_val@V?$tbb_allocator@PAPAVtask@tbb@@@tbb@@PAPAVtask@2@AAPAPAV32@@std@@YAXAAV?$tbb_allocator@PAPAVtask@tbb@@@tbb@@PAPAPAVtask@2@AAPAPAV32@@Z 10024ed0 f i scheduler.obj
 0001:00023ef0       ??$_Cons_val@V?$tbb_allocator@PAPAVtask@tbb@@@tbb@@PAPAVtask@2@PAPAV32@@std@@YAXAAV?$tbb_allocator@PAPAVtask@tbb@@@tbb@@PAPAPAVtask@2@$$QAPAPAV32@@Z 10024ef0 f i scheduler.obj
 0001:00023f20       ?construct@?$tbb_allocator@PAPAVtask@tbb@@@tbb@@QAEXPAPAPAVtask@2@ABQAPAV32@@Z 10024f20 f i scheduler.obj
 0001:00023f60       ??$_Iter_cat@PAPAPAVtask@tbb@@@std@@YA?AUrandom_access_iterator_tag@0@ABQAPAPAVtask@tbb@@@Z 10024f60 f i scheduler.obj
 0001:00023f80       ??$_Debug_range2@PAPAPAVtask@tbb@@@std@@YAXPAPAPAVtask@tbb@@0PB_WIUrandom_access_iterator_tag@0@@Z 10024f80 f i scheduler.obj
 0001:00023fe0       ??$forward@AAPAPAVtask@tbb@@@std@@YAAAPAPAVtask@tbb@@AAPAPAV12@@Z 10024fe0 f i scheduler.obj
 0001:00023ff0       ??$forward@PAPAVtask@tbb@@@std@@YA$$QAPAPAVtask@tbb@@AAPAPAV12@@Z 10024ff0 f i scheduler.obj
 0001:00024000       ??0observer_proxy@internal@tbb@@AAE@AAVtask_scheduler_observer_v3@12@@Z 10025000 f   observer_proxy.obj
 0001:00024090       ?remove_from_list@observer_proxy@internal@tbb@@AAEXXZ 10025090 f   observer_proxy.obj
 0001:00024120       ?remove_ref_slow@observer_proxy@internal@tbb@@AAEXXZ 10025120 f   observer_proxy.obj
 0001:00024260       ?process_list@observer_proxy@internal@tbb@@SAPAV123@PAV123@_N1@Z 10025260 f   observer_proxy.obj
 0001:000244e0       ?observe@task_scheduler_observer_v3@internal@tbb@@QAEX_N@Z 100254e0 f   observer_proxy.obj
 0001:00024690       ??0scoped_lock@spin_rw_mutex_v3@tbb@@QAE@AAV12@_N@Z 10025690 f i observer_proxy.obj
 0001:000246d0       ??1scoped_lock@spin_rw_mutex_v3@tbb@@QAE@XZ 100256d0 f i observer_proxy.obj
 0001:000246f0       ?acquire@scoped_lock@spin_rw_mutex_v3@tbb@@QAEXAAV23@_N@Z 100256f0 f i observer_proxy.obj
 0001:00024750       ?release@scoped_lock@spin_rw_mutex_v3@tbb@@QAEXXZ 10025750 f i observer_proxy.obj
 0001:000247b0       ?begin@?$aligned_space@Vspin_rw_mutex_v3@tbb@@$00@tbb@@QAEPAVspin_rw_mutex_v3@2@XZ 100257b0 f i observer_proxy.obj
 0001:000247d0       ??$poison_pointer@Vobserver_proxy@internal@tbb@@@internal@tbb@@YAXAAPAVobserver_proxy@01@@Z 100257d0 f i observer_proxy.obj
 0001:000247e0       ??$punned_cast@PAVspin_rw_mutex_v3@tbb@@V?$aligned_space@Vspin_rw_mutex_v3@tbb@@$00@2@@internal@tbb@@YAPAVspin_rw_mutex_v3@1@PAV?$aligned_space@Vspin_rw_mutex_v3@tbb@@$00@1@@Z 100257e0 f i observer_proxy.obj
 0001:00024800       ??1check_observer_proxy_count@internal@tbb@@QAE@XZ 10025800 f i observer_proxy.obj
 0001:00024840       ?GetPrime@internal@tbb@@YAII@Z 10025840 f   tbb_main.obj
 0001:00024860       ?add_ref@__TBB_InitOnce@internal@tbb@@SAXXZ 10025860 f   tbb_main.obj
 0001:00024880       ?remove_ref@__TBB_InitOnce@internal@tbb@@SAXXZ 10025880 f   tbb_main.obj
 0001:000248d0       ?ITT_DoUnsafeOneTimeInitialization@internal@tbb@@YAXXZ 100258d0 f   tbb_main.obj
 0001:00024920       _ITT_DoOneTimeInitialization 10025920 f   tbb_main.obj
 0001:00024980       ?DoOneTimeInitializations@internal@tbb@@YAXXZ 10025980 f   tbb_main.obj
 0001:00024a30       _DllMain@12                10025a30 f   tbb_main.obj
 0001:00024a80       ?itt_store_pointer_with_release_v3@internal@tbb@@YAXPAX0@Z 10025a80 f   tbb_main.obj
 0001:00024ab0       ?itt_load_pointer_with_acquire_v3@internal@tbb@@YAPAXPBX@Z 10025ab0 f   tbb_main.obj
 0001:00024af0       ?call_itt_notify_v5@internal@tbb@@YAXHPAX@Z 10025af0 f   tbb_main.obj
 0001:00024b90       ?itt_load_pointer_v3@internal@tbb@@YAPAXPBX@Z 10025b90 f   tbb_main.obj
 0001:00024bb0       ?itt_set_sync_name_v3@internal@tbb@@YAXPAXPB_W@Z 10025bb0 f   tbb_main.obj
 0001:00024c20       ?lock@__TBB_InitOnce@internal@tbb@@SAXXZ 10025c20 f i tbb_main.obj
 0001:00024c40       ?unlock@__TBB_InitOnce@internal@tbb@@SAXXZ 10025c40 f i tbb_main.obj
 0001:00024c60       ?terminate_auto_initialized_scheduler@governor@internal@tbb@@SAXXZ 10025c60 f i tbb_main.obj
 0001:00024c80       ??$suppress_unused_warning@_N@internal@tbb@@YAXAB_N@Z 10025c80 f i tbb_main.obj
 0001:00024c90       ?internal_grow_to_at_least@concurrent_vector_base@internal@tbb@@IAEXIIP6AXPAXI@Z@Z 10025c90 f   concurrent_vector_v2.obj
 0001:00024cf0       ?extend_segment@helper@concurrent_vector_base@internal@tbb@@CAXAAV234@@Z 10025cf0 f   concurrent_vector_v2.obj
 0001:00024da0       ?internal_capacity@concurrent_vector_base@internal@tbb@@IBEIXZ 10025da0 f   concurrent_vector_v2.obj
 0001:00024dc0       ?internal_reserve@concurrent_vector_base@internal@tbb@@IAEXIII@Z 10025dc0 f   concurrent_vector_v2.obj
 0001:00024ea0       ?internal_copy@concurrent_vector_base@internal@tbb@@IAEXABV123@IP6AXPAXPBXI@Z@Z 10025ea0 f   concurrent_vector_v2.obj
 0001:00024fd0       ?internal_assign@concurrent_vector_base@internal@tbb@@IAEXABV123@IP6AXPAXI@ZP6AX1PBXI@Z4@Z 10025fd0 f   concurrent_vector_v2.obj
 0001:00025250       ?internal_push_back@concurrent_vector_base@internal@tbb@@IAEPAXIAAI@Z 10026250 f   concurrent_vector_v2.obj
 0001:000253e0       ?internal_grow_by@concurrent_vector_base@internal@tbb@@IAEIIIP6AXPAXI@Z@Z 100263e0 f   concurrent_vector_v2.obj
 0001:00025420       ?internal_grow@concurrent_vector_base@internal@tbb@@IAEXIIIP6AXPAXI@Z@Z 10026420 f   concurrent_vector_v2.obj
 0001:000255c0       ?internal_clear@concurrent_vector_base@internal@tbb@@IAEXP6AXPAXI@Z_N@Z 100265c0 f   concurrent_vector_v2.obj
 0001:00025790       ?segment_base@concurrent_vector_base@internal@tbb@@KAKK@Z 10026790 f i concurrent_vector_v2.obj
 0001:000257b0       ?find_segment_end@helper@concurrent_vector_base@internal@tbb@@SAKABV234@@Z 100267b0 f i concurrent_vector_v2.obj
 0001:00025820       ?segment_size@concurrent_vector_base@internal@tbb@@KAKK@Z 10026820 f i concurrent_vector_v2.obj
 0001:00025890       ?extend_segment_if_necessary@helper@concurrent_vector_base@internal@tbb@@SAXAAV234@I@Z 10026890 f i concurrent_vector_v2.obj
 0001:000258d0       ?segment_index_of@concurrent_vector_base@internal@tbb@@KAKI@Z 100268d0 f i concurrent_vector_v2.obj
 0001:00025900       ??4?$atomic@PAUsegment_t@concurrent_vector_base@internal@tbb@@@tbb@@QAEPAUsegment_t@concurrent_vector_base@internal@1@PAU2341@@Z 10026900 f i concurrent_vector_v2.obj
 0001:00025920       ?compare_and_swap@?$atomic_impl@PAUsegment_t@concurrent_vector_base@internal@tbb@@@internal@tbb@@QAEPAUsegment_t@concurrent_vector_base@23@PAU4523@0@Z 10026920 f i concurrent_vector_v2.obj
 0001:00025940       ??B?$atomic_impl@PAUsegment_t@concurrent_vector_base@internal@tbb@@@internal@tbb@@QDEPAUsegment_t@concurrent_vector_base@12@XZ 10026940 f i concurrent_vector_v2.obj
 0001:00025960       ?store_with_release@?$atomic_impl@PAUsegment_t@concurrent_vector_base@internal@tbb@@@internal@tbb@@IAEPAUsegment_t@concurrent_vector_base@23@PAU4523@@Z 10026960 f i concurrent_vector_v2.obj
 0001:00025990       ??$compare_and_swap@$0A@@?$atomic_impl@PAUsegment_t@concurrent_vector_base@internal@tbb@@@internal@tbb@@QAEPAUsegment_t@concurrent_vector_base@12@PAU3412@0@Z 10026990 f i concurrent_vector_v2.obj
 0001:000259d0       ?push@micro_queue@internal@tbb@@QAEXPBXIAAVconcurrent_queue_base@23@@Z 100269d0 f   concurrent_queue_v2.obj
 0001:00025b40       ?pop@micro_queue@internal@tbb@@QAE_NPAXIAAVconcurrent_queue_base@23@@Z 10026b40 f   concurrent_queue_v2.obj
 0001:00025c60       ??0concurrent_queue_base@internal@tbb@@IAE@I@Z 10026c60 f   concurrent_queue_v2.obj
 0001:00025e30       ??1concurrent_queue_base@internal@tbb@@MAE@XZ 10026e30 f   concurrent_queue_v2.obj
 0001:00025f00       ?internal_push@concurrent_queue_base@internal@tbb@@IAEXPBX@Z 10026f00 f   concurrent_queue_v2.obj
 0001:00025fa0       ?internal_pop@concurrent_queue_base@internal@tbb@@IAEXPAX@Z 10026fa0 f   concurrent_queue_v2.obj
 0001:00025ff0       ?internal_pop_if_present@concurrent_queue_base@internal@tbb@@IAE_NPAX@Z 10026ff0 f   concurrent_queue_v2.obj
 0001:00026080       ?internal_push_if_not_full@concurrent_queue_base@internal@tbb@@IAE_NPBX@Z 10027080 f   concurrent_queue_v2.obj
 0001:00026120       ?internal_size@concurrent_queue_base@internal@tbb@@IBEHXZ 10027120 f   concurrent_queue_v2.obj
 0001:00026180       ?internal_set_capacity@concurrent_queue_base@internal@tbb@@IAEXHI@Z 10027180 f   concurrent_queue_v2.obj
 0001:000261b0       ??0concurrent_queue_iterator_base@internal@tbb@@IAE@ABVconcurrent_queue_base@12@@Z 100271b0 f   concurrent_queue_v2.obj
 0001:00026250       ?assign@concurrent_queue_iterator_base@internal@tbb@@IAEXABV123@@Z 10027250 f   concurrent_queue_v2.obj
 0001:000262f0       ?advance@concurrent_queue_iterator_base@internal@tbb@@IAEXXZ 100272f0 f   concurrent_queue_v2.obj
 0001:000263e0       ??1concurrent_queue_iterator_base@internal@tbb@@IAE@XZ 100273e0 f   concurrent_queue_v2.obj
 0001:00026460       ??0push_finalizer@micro_queue@internal@tbb@@QAE@AAU123@I@Z 10027460 f i concurrent_queue_v2.obj
 0001:00026490       ??1push_finalizer@micro_queue@internal@tbb@@QAE@XZ 10027490 f i concurrent_queue_v2.obj
 0001:000264b0       ??0pop_finalizer@micro_queue@internal@tbb@@QAE@AAU123@IPAUpage@concurrent_queue_base@23@@Z 100274b0 f i concurrent_queue_v2.obj
 0001:000264f0       ??1pop_finalizer@micro_queue@internal@tbb@@QAE@XZ 100274f0 f i concurrent_queue_v2.obj
 0001:000265c0       ??_Econcurrent_queue_base@internal@tbb@@MAEPAXI@Z 100275c0 f i concurrent_queue_v2.obj
 0001:000265c0       ??_Gconcurrent_queue_base@internal@tbb@@MAEPAXI@Z 100275c0 f i concurrent_queue_v2.obj
 0001:000265f0       ??0concurrent_queue_iterator_rep@internal@tbb@@QAE@ABVconcurrent_queue_base@12@@Z 100275f0 f i concurrent_queue_v2.obj
 0001:00026660       ?choose@concurrent_queue_iterator_rep@internal@tbb@@QAEPAXI@Z 10027660 f i concurrent_queue_v2.obj
 0001:000266f0       ??4?$atomic@PAUpage@concurrent_queue_base@internal@tbb@@@tbb@@QAEPAUpage@concurrent_queue_base@internal@1@PAU2341@@Z 100276f0 f i concurrent_queue_v2.obj
 0001:00026710       ??B?$atomic_impl@PAUpage@concurrent_queue_base@internal@tbb@@@internal@tbb@@QDEPAUpage@concurrent_queue_base@12@XZ 10027710 f i concurrent_queue_v2.obj
 0001:00026730       ?store_with_release@?$atomic_impl@PAUpage@concurrent_queue_base@internal@tbb@@@internal@tbb@@IAEPAUpage@concurrent_queue_base@23@PAU4523@@Z 10027730 f i concurrent_queue_v2.obj
 0001:00026760       ?internal_itt_releasing@spin_rw_mutex@tbb@@CAXPAV12@@Z 10027760 f   spin_rw_mutex_v2.obj
 0001:000267a0       ?internal_acquire_writer@spin_rw_mutex@tbb@@CA_NPAV12@@Z 100277a0 f   spin_rw_mutex_v2.obj
 0001:000268f0       ?internal_release_writer@spin_rw_mutex@tbb@@CAXPAV12@@Z 100278f0 f   spin_rw_mutex_v2.obj
 0001:00026940       ?internal_acquire_reader@spin_rw_mutex@tbb@@CAXPAV12@@Z 10027940 f   spin_rw_mutex_v2.obj
 0001:00026a10       ?internal_upgrade@spin_rw_mutex@tbb@@CA_NPAV12@@Z 10027a10 f   spin_rw_mutex_v2.obj
 0001:00026b70       ?internal_downgrade@spin_rw_mutex@tbb@@CAXPAV12@@Z 10027b70 f   spin_rw_mutex_v2.obj
 0001:00026c10       ?internal_release_reader@spin_rw_mutex@tbb@@CAXPAV12@@Z 10027c10 f   spin_rw_mutex_v2.obj
 0001:00026cb0       ?internal_try_acquire_writer@spin_rw_mutex@tbb@@CA_NPAV12@@Z 10027cb0 f   spin_rw_mutex_v2.obj
 0001:00026d00       ?internal_try_acquire_reader@spin_rw_mutex@tbb@@CA_NPAV12@@Z 10027d00 f   spin_rw_mutex_v2.obj
 0001:00026d60       ?destroy@task@tbb@@QAEXAAV12@@Z 10027d60 f   task_v2.obj
 0001:00026d80       ___TBB_machine_fetchadd1   10027d80     atomic_support.obj
 0001:00026d90       ___TBB_machine_fetchstore1 10027d90     atomic_support.obj
 0001:00026d9c       ___TBB_machine_cmpswp1     10027d9c     atomic_support.obj
 0001:00026db0       ___TBB_machine_fetchadd2   10027db0     atomic_support.obj
 0001:00026dc0       ___TBB_machine_fetchstore2 10027dc0     atomic_support.obj
 0001:00026dd0       ___TBB_machine_cmpswp2     10027dd0     atomic_support.obj
 0001:00026de4       ___TBB_machine_fetchadd4   10027de4     atomic_support.obj
 0001:00026df4       ___TBB_machine_fetchstore4 10027df4     atomic_support.obj
 0001:00026e00       ___TBB_machine_cmpswp4     10027e00     atomic_support.obj
 0001:00026e14       ___TBB_machine_fetchadd8   10027e14     atomic_support.obj
 0001:00026e34       ___TBB_machine_fetchstore8 10027e34     atomic_support.obj
 0001:00026e50       ___TBB_machine_cmpswp8     10027e50     atomic_support.obj
 0001:00026e70       ___TBB_machine_load8       10027e70     atomic_support.obj
 0001:00026ea4       ___TBB_machine_store8      10027ea4     atomic_support.obj
 0001:00026ec0       ___TBB_machine_trylockbyte 10027ec0     lock_byte.obj
 0001:00026edc       ?_Debug_message@std@@YAXPB_W0I@Z 10027edc f   msvcprtd:MSVCP100D.dll
 0001:00026ee2       ??1_Lockit@std@@QAE@XZ     10027ee2 f   msvcprtd:MSVCP100D.dll
 0001:00026ee8       ?_Getpfirst@_Container_base12@std@@QBEPAPAU_Iterator_base12@2@XZ 10027ee8 f   msvcprtd:MSVCP100D.dll
 0001:00026eee       ??0_Lockit@std@@QAE@H@Z    10027eee f   msvcprtd:MSVCP100D.dll
 0001:00026ef4       ??1_Container_base12@std@@QAE@XZ 10027ef4 f   msvcprtd:MSVCP100D.dll
 0001:00026efa       ?_Orphan_all@_Container_base12@std@@QAEXXZ 10027efa f   msvcprtd:MSVCP100D.dll
 0001:00026f00       ??_U@YAPAXI@Z              10027f00 f   msvcprtd:newaop_s.obj
 0001:00026f14       ??0_Container_base12@std@@QAE@XZ 10027f14 f   msvcprtd:MSVCP100D.dll
 0001:00026f1a       ?_Xlength_error@std@@YAXPBD@Z 10027f1a f   msvcprtd:MSVCP100D.dll
 0001:00026f20       ___CxxFrameHandler3        10027f20 f   MSVCRTD:MSVCR100D.dll
 0001:00026f30       @__security_check_cookie@4 10027f30 f   MSVCRTD:secchk.obj
 0001:00026f40       __CxxThrowException@8      10027f40 f   MSVCRTD:MSVCR100D.dll
 0001:00026f46       _memset                    10027f46 f   MSVCRTD:MSVCR100D.dll
 0001:00026f50       ??0type_info@@AAE@ABV0@@Z  10027f50 f   MSVCRTD:ti_inst.obj
 0001:00026f70       ??_Etype_info@@UAEPAXI@Z   10027f70 f i MSVCRTD:ti_inst.obj
 0001:00026fe0       ??4type_info@@AAEAAV0@ABV0@@Z 10027fe0 f   MSVCRTD:ti_inst.obj
 0001:00026ff2       __purecall                 10027ff2 f   MSVCRTD:MSVCR100D.dll
 0001:00026ff8       ??3@YAXPAX@Z               10027ff8 f   MSVCRTD:MSVCR100D.dll
 0001:00027000       ??_M@YGXPAXIHP6EX0@Z@Z     10028000 f   MSVCRTD:ehvecdtr.obj
 0001:000270c0       ?__ArrayUnwind@@YGXPAXIHP6EX0@Z@Z 100280c0 f   MSVCRTD:ehvecdtr.obj
 0001:0002717e       _memcpy                    1002817e f   MSVCRTD:MSVCR100D.dll
 0001:00027190       __alloca_probe_16          10028190 f   MSVCRTD:alloca16.obj
 0001:000271a6       __alloca_probe_8           100281a6     MSVCRTD:alloca16.obj
 0001:000271bc       _strcpy                    100281bc f   MSVCRTD:MSVCR100D.dll
 0001:000271c2       _strlen                    100281c2 f   MSVCRTD:MSVCR100D.dll
 0001:000271c8       __wcsdup                   100281c8 f   MSVCRTD:MSVCR100D.dll
 0001:000271ce       _malloc                    100281ce f   MSVCRTD:MSVCR100D.dll
 0001:000271d4       _wcscmp                    100281d4 f   MSVCRTD:MSVCR100D.dll
 0001:000271da       __strdup                   100281da f   MSVCRTD:MSVCR100D.dll
 0001:000271e0       _free                      100281e0 f   MSVCRTD:MSVCR100D.dll
 0001:000271e6       ??2@YAPAXI@Z               100281e6 f   MSVCRTD:MSVCR100D.dll
 0001:000271ec       ??_V@YAXPAX@Z              100281ec f   MSVCRTD:MSVCR100D.dll
 0001:000271f2       __CrtDbgReport             100281f2 f   MSVCRTD:MSVCR100D.dll
 0001:000271f8       _fprintf                   100281f8 f   MSVCRTD:MSVCR100D.dll
 0001:000271fe       ___iob_func                100281fe f   MSVCRTD:MSVCR100D.dll
 0001:00027204       _strncpy                   10028204 f   MSVCRTD:MSVCR100D.dll
 0001:0002720a       _strerror                  1002820a f   MSVCRTD:MSVCR100D.dll
 0001:00027210       _sprintf                   10028210 f   MSVCRTD:MSVCR100D.dll
 0001:00027216       ??0exception@std@@QAE@ABV01@@Z 10028216 f   MSVCRTD:MSVCR100D.dll
 0001:0002721c       _strchr                    1002821c f   MSVCRTD:MSVCR100D.dll
 0001:00027222       ??0exception@std@@QAE@ABQBD@Z 10028222 f   MSVCRTD:MSVCR100D.dll
 0001:00027228       ?what@exception@std@@UBEPBDXZ 10028228 f   MSVCRTD:MSVCR100D.dll
 0001:0002722e       ??1exception@std@@UAE@XZ   1002822e f   MSVCRTD:MSVCR100D.dll
 0001:00027234       ??0exception@std@@QAE@ABQBDH@Z 10028234 f   MSVCRTD:MSVCR100D.dll
 0001:0002723a       ??0exception@std@@QAE@XZ   1002823a f   MSVCRTD:MSVCR100D.dll
 0001:00027240       _strcmp                    10028240 f   MSVCRTD:MSVCR100D.dll
 0001:00027246       _getenv                    10028246 f   MSVCRTD:MSVCR100D.dll
 0001:0002724c       _fputs                     1002824c f   MSVCRTD:MSVCR100D.dll
 0001:00027260       __errno                    10028260 f   MSVCRTD:MSVCR100D.dll
 0001:00027266       __beginthreadex            10028266 f   MSVCRTD:MSVCR100D.dll
 0001:0002726c       _exit                      1002826c f   MSVCRTD:MSVCR100D.dll
 0001:00027272       __wassert                  10028272 f   MSVCRTD:MSVCR100D.dll
 0001:00027278       ?__ExceptionPtrDestroy@@YAXPAX@Z 10028278 f   MSVCRTD:MSVCR100D.dll
 0001:0002727e       ?__ExceptionPtrCurrentException@@YAXPAX@Z 1002827e f   MSVCRTD:MSVCR100D.dll
 0001:00027284       ?__ExceptionPtrCreate@@YAXPAX@Z 10028284 f   MSVCRTD:MSVCR100D.dll
 0001:0002728a       ?__ExceptionPtrCopy@@YAXPAXPBX@Z 1002828a f   MSVCRTD:MSVCR100D.dll
 0001:00027290       ___RTtypeid                10028290 f   MSVCRTD:MSVCR100D.dll
 0001:000272a0       ___clean_type_info_names   100282a0 f   MSVCRTD:tncleanup.obj
 0001:000272b4       ?__ExceptionPtrCopyException@@YAXPAXPBX1@Z 100282b4 f   MSVCRTD:MSVCR100D.dll
 0001:000272c0       ??_L@YGXPAXIHP6EX0@Z1@Z    100282c0 f   MSVCRTD:ehvecctr.obj
 0001:00027370       __invalid_parameter        10028370 f   MSVCRTD:MSVCR100D.dll
 0001:00027376       __CrtDbgReportW            10028376 f   MSVCRTD:MSVCR100D.dll
 0001:0002737c       _memmove                   1002837c f   MSVCRTD:MSVCR100D.dll
 0001:00027382       ?__ExceptionPtrRethrow@@YAXPBX@Z 10028382 f   MSVCRTD:MSVCR100D.dll
 0001:00027390       __onexit                   10028390 f   MSVCRTD:atonexit.obj
 0001:00027490       _atexit                    10028490 f   MSVCRTD:atonexit.obj
 0001:00027530       __CRT_INIT@12              10028530 f   MSVCRTD:crtdll.obj
 0001:00027820       __DllMainCRTStartup@12     10028820 f   MSVCRTD:crtdll.obj
 0001:00027a20       ___report_gsfailure        10028a20 f   MSVCRTD:gs_report.obj
 0001:00027b30       __except_handler4          10028b30 f   MSVCRTD:chandler4gs.obj
 0001:00027b5a       ?terminate@@YAXXZ          10028b5a f   MSVCRTD:MSVCR100D.dll
 0001:00027b60       __chkstk                   10028b60 f   MSVCRTD:chkstk.obj
 0001:00027b60       __alloca_probe             10028b60     MSVCRTD:chkstk.obj
 0001:00027b8c       __vsnprintf                10028b8c f   MSVCRTD:MSVCR100D.dll
 0001:00027b92       ?_name_internal_method@type_info@@QBEPBDPAU__type_info_node@@@Z 10028b92 f   MSVCRTD:MSVCR100D.dll
 0001:00027b98       ___clean_type_info_names_internal 10028b98 f   MSVCRTD:MSVCR100D.dll
 0001:00027b9e       __unlock                   10028b9e f   MSVCRTD:MSVCR100D.dll
 0001:00027ba4       ___dllonexit               10028ba4 f   MSVCRTD:MSVCR100D.dll
 0001:00027baa       __lock                     10028baa f   MSVCRTD:MSVCR100D.dll
 0001:00027bb0       __RTC_Initialize           10028bb0 f   MSVCRTD:_initsect_.obj
 0001:00027be0       __RTC_Terminate            10028be0 f   MSVCRTD:_initsect_.obj
 0001:00027c06       __malloc_dbg               10028c06 f   MSVCRTD:MSVCR100D.dll
 0001:00027c0c       __free_dbg                 10028c0c f   MSVCRTD:MSVCR100D.dll
 0001:00027c12       __encoded_null             10028c12 f   MSVCRTD:MSVCR100D.dll
 0001:00027c18       __CrtSetCheckCount         10028c18 f   MSVCRTD:MSVCR100D.dll
 0001:00027c20       __ValidateImageBase        10028c20 f   MSVCRTD:pesect.obj
 0001:00027c80       __FindPESection            10028c80 f   MSVCRTD:pesect.obj
 0001:00027d00       __IsNonwritableInCurrentImage 10028d00 f   MSVCRTD:pesect.obj
 0001:00027e12       __initterm                 10028e12 f   MSVCRTD:MSVCR100D.dll
 0001:00027e18       __initterm_e               10028e18 f   MSVCRTD:MSVCR100D.dll
 0001:00027e1e       __amsg_exit                10028e1e f   MSVCRTD:MSVCR100D.dll
 0001:00027e30       ___security_init_cookie    10028e30 f   MSVCRTD:gs_support.obj
 0001:00027f10       ___CppXcptFilter           10028f10 f   MSVCRTD:MSVCR100D.dll
 0001:00027f16       __crt_debugger_hook        10028f16 f   MSVCRTD:MSVCR100D.dll
 0001:00027f1c       ??1type_info@@UAE@XZ       10028f1c f   MSVCRTD:MSVCR100D.dll
 0001:00027f1c       ?_type_info_dtor_internal_method@type_info@@QAEXXZ 10028f1c f   MSVCRTD:MSVCR100D.dll
 0001:00027f22       __except_handler4_common   10028f22 f   MSVCRTD:MSVCR100D.dll
 0001:00027f28       _SwitchToThread@0          10028f28 f   kernel32:KERNEL32.dll
 0001:00027f2e       _GetLastError@0            10028f2e f   kernel32:KERNEL32.dll
 0001:00027f34       _GetProcAddress@8          10028f34 f   kernel32:KERNEL32.dll
 0001:00027f3a       _FreeLibrary@4             10028f3a f   kernel32:KERNEL32.dll
 0001:00027f40       _SetErrorMode@4            10028f40 f   kernel32:KERNEL32.dll
 0001:00027f46       _LoadLibraryA@4            10028f46 f   kernel32:KERNEL32.dll
 0001:00027f4c       _GetModuleFileNameA@12     10028f4c f   kernel32:KERNEL32.dll
 0001:00027f52       _GetModuleHandleA@4        10028f52 f   kernel32:KERNEL32.dll
 0001:00027f58       _GetModuleHandleExA@12     10028f58 f   kernel32:KERNEL32.dll
 0001:00027f5e       _LeaveCriticalSection@4    10028f5e f   kernel32:KERNEL32.dll
 0001:00027f64       _EnterCriticalSection@4    10028f64 f   kernel32:KERNEL32.dll
 0001:00027f6a       _InitializeCriticalSection@4 10028f6a f   kernel32:KERNEL32.dll
 0001:00027f70       _InterlockedIncrement@4    10028f70 f   kernel32:KERNEL32.dll
 0001:00027f76       _lstrcmpA@8                10028f76 f   kernel32:KERNEL32.dll
 0001:00027f7c       _GetCurrentThreadId@0      10028f7c f   kernel32:KERNEL32.dll
 0001:00027f82       _GetEnvironmentVariableA@12 10028f82 f   kernel32:KERNEL32.dll
 0001:00027f88       _lstrcpynA@12              10028f88 f   kernel32:KERNEL32.dll
 0001:00027f8e       _ReleaseSemaphore@12       10028f8e f   kernel32:KERNEL32.dll
 0001:00027f94       _CloseHandle@4             10028f94 f   kernel32:KERNEL32.dll
 0001:00027f9a       _CreateSemaphoreW@16       10028f9a f   kernel32:KERNEL32.dll
 0001:00027fa0       _WaitForSingleObject@8     10028fa0 f   kernel32:KERNEL32.dll
 0001:00027fa6       _TlsAlloc@0                10028fa6 f   kernel32:KERNEL32.dll
 0001:00027fac       _TlsFree@4                 10028fac f   kernel32:KERNEL32.dll
 0001:00027fb2       _TlsSetValue@8             10028fb2 f   kernel32:KERNEL32.dll
 0001:00027fb8       _TlsGetValue@4             10028fb8 f   kernel32:KERNEL32.dll
 0001:00027fbe       _FormatMessageA@28         10028fbe f   kernel32:KERNEL32.dll
 0001:00027fc4       _GetCurrentThread@0        10028fc4 f   kernel32:KERNEL32.dll
 0001:00027fca       _GetProcessAffinityMask@12 10028fca f   kernel32:KERNEL32.dll
 0001:00027fd0       _GetCurrentProcess@0       10028fd0 f   kernel32:KERNEL32.dll
 0001:00027fd6       _GetSystemInfo@4           10028fd6 f   kernel32:KERNEL32.dll
 0001:00027fdc       _TryEnterCriticalSection@4 10028fdc f   kernel32:KERNEL32.dll
 0001:00027fe2       _DeleteCriticalSection@4   10028fe2 f   kernel32:KERNEL32.dll
 0001:00027fe8       _CreateEventA@16           10028fe8 f   kernel32:KERNEL32.dll
 0001:00027fee       _ResetEvent@4              10028fee f   kernel32:KERNEL32.dll
 0001:00027ff4       _SetLastError@4            10028ff4 f   kernel32:KERNEL32.dll
 0001:00027ffa       _SetEvent@4                10028ffa f   kernel32:KERNEL32.dll
 0001:00028000       _QueryPerformanceFrequency@4 10029000 f   kernel32:KERNEL32.dll
 0001:00028006       _Sleep@4                   10029006 f   kernel32:KERNEL32.dll
 0001:0002800c       _QueryPerformanceCounter@4 1002900c f   kernel32:KERNEL32.dll
 0001:00028012       _ResumeThread@4            10029012 f   kernel32:KERNEL32.dll
 0001:00028018       _EncodePointer@4           10029018 f   kernel32:KERNEL32.dll
 0001:0002801e       _DecodePointer@4           1002901e f   kernel32:KERNEL32.dll
 0001:00028024       _InterlockedExchange@8     10029024 f   kernel32:KERNEL32.dll
 0001:0002802a       _InterlockedCompareExchange@12 1002902a f   kernel32:KERNEL32.dll
 0001:00028030       _TerminateProcess@8        10029030 f   kernel32:KERNEL32.dll
 0001:00028036       _UnhandledExceptionFilter@4 10029036 f   kernel32:KERNEL32.dll
 0001:0002803c       _SetUnhandledExceptionFilter@4 1002903c f   kernel32:KERNEL32.dll
 0001:00028042       _IsDebuggerPresent@0       10029042 f   kernel32:KERNEL32.dll
 0001:00028048       _GetTickCount@0            10029048 f   kernel32:KERNEL32.dll
 0001:0002804e       _GetCurrentProcessId@0     1002904e f   kernel32:KERNEL32.dll
 0001:00028054       _GetSystemTimeAsFileTime@4 10029054 f   kernel32:KERNEL32.dll
 0002:00000000       __imp__GetLastError@0      1002b000     kernel32:KERNEL32.dll
 0002:00000004       __imp__GetProcAddress@8    1002b004     kernel32:KERNEL32.dll
 0002:00000008       __imp__FreeLibrary@4       1002b008     kernel32:KERNEL32.dll
 0002:0000000c       __imp__SetErrorMode@4      1002b00c     kernel32:KERNEL32.dll
 0002:00000010       __imp__LoadLibraryA@4      1002b010     kernel32:KERNEL32.dll
 0002:00000014       __imp__GetModuleFileNameA@12 1002b014     kernel32:KERNEL32.dll
 0002:00000018       __imp__GetModuleHandleA@4  1002b018     kernel32:KERNEL32.dll
 0002:0000001c       __imp__GetModuleHandleExA@12 1002b01c     kernel32:KERNEL32.dll
 0002:00000020       __imp__GetSystemTimeAsFileTime@4 1002b020     kernel32:KERNEL32.dll
 0002:00000024       __imp__GetCurrentProcessId@0 1002b024     kernel32:KERNEL32.dll
 0002:00000028       __imp__GetTickCount@0      1002b028     kernel32:KERNEL32.dll
 0002:0000002c       __imp__IsDebuggerPresent@0 1002b02c     kernel32:KERNEL32.dll
 0002:00000030       __imp__SetUnhandledExceptionFilter@4 1002b030     kernel32:KERNEL32.dll
 0002:00000034       __imp__UnhandledExceptionFilter@4 1002b034     kernel32:KERNEL32.dll
 0002:00000038       __imp__TerminateProcess@8  1002b038     kernel32:KERNEL32.dll
 0002:0000003c       __imp__InterlockedCompareExchange@12 1002b03c     kernel32:KERNEL32.dll
 0002:00000040       __imp__InterlockedExchange@8 1002b040     kernel32:KERNEL32.dll
 0002:00000044       __imp__DecodePointer@4     1002b044     kernel32:KERNEL32.dll
 0002:00000048       __imp__EncodePointer@4     1002b048     kernel32:KERNEL32.dll
 0002:0000004c       __imp__ResumeThread@4      1002b04c     kernel32:KERNEL32.dll
 0002:00000050       __imp__QueryPerformanceCounter@4 1002b050     kernel32:KERNEL32.dll
 0002:00000054       __imp__Sleep@4             1002b054     kernel32:KERNEL32.dll
 0002:00000058       __imp__QueryPerformanceFrequency@4 1002b058     kernel32:KERNEL32.dll
 0002:0000005c       __imp__SetEvent@4          1002b05c     kernel32:KERNEL32.dll
 0002:00000060       __imp__SetLastError@4      1002b060     kernel32:KERNEL32.dll
 0002:00000064       __imp__ResetEvent@4        1002b064     kernel32:KERNEL32.dll
 0002:00000068       __imp__CreateEventA@16     1002b068     kernel32:KERNEL32.dll
 0002:0000006c       __imp__DeleteCriticalSection@4 1002b06c     kernel32:KERNEL32.dll
 0002:00000070       __imp__TryEnterCriticalSection@4 1002b070     kernel32:KERNEL32.dll
 0002:00000074       __imp__GetSystemInfo@4     1002b074     kernel32:KERNEL32.dll
 0002:00000078       __imp__GetCurrentProcess@0 1002b078     kernel32:KERNEL32.dll
 0002:0000007c       __imp__GetProcessAffinityMask@12 1002b07c     kernel32:KERNEL32.dll
 0002:00000080       __imp__GetCurrentThread@0  1002b080     kernel32:KERNEL32.dll
 0002:00000084       __imp__FormatMessageA@28   1002b084     kernel32:KERNEL32.dll
 0002:00000088       __imp__TlsGetValue@4       1002b088     kernel32:KERNEL32.dll
 0002:0000008c       __imp__TlsSetValue@8       1002b08c     kernel32:KERNEL32.dll
 0002:00000090       __imp__TlsFree@4           1002b090     kernel32:KERNEL32.dll
 0002:00000094       __imp__TlsAlloc@0          1002b094     kernel32:KERNEL32.dll
 0002:00000098       __imp__WaitForSingleObject@8 1002b098     kernel32:KERNEL32.dll
 0002:0000009c       __imp__CreateSemaphoreW@16 1002b09c     kernel32:KERNEL32.dll
 0002:000000a0       __imp__CloseHandle@4       1002b0a0     kernel32:KERNEL32.dll
 0002:000000a4       __imp__ReleaseSemaphore@12 1002b0a4     kernel32:KERNEL32.dll
 0002:000000a8       __imp__lstrcpynA@12        1002b0a8     kernel32:KERNEL32.dll
 0002:000000ac       __imp__GetEnvironmentVariableA@12 1002b0ac     kernel32:KERNEL32.dll
 0002:000000b0       __imp__GetCurrentThreadId@0 1002b0b0     kernel32:KERNEL32.dll
 0002:000000b4       __imp__lstrcmpA@8          1002b0b4     kernel32:KERNEL32.dll
 0002:000000b8       __imp__InterlockedIncrement@4 1002b0b8     kernel32:KERNEL32.dll
 0002:000000bc       __imp__InitializeCriticalSection@4 1002b0bc     kernel32:KERNEL32.dll
 0002:000000c0       __imp__EnterCriticalSection@4 1002b0c0     kernel32:KERNEL32.dll
 0002:000000c4       __imp__LeaveCriticalSection@4 1002b0c4     kernel32:KERNEL32.dll
 0002:000000c8       __imp__SwitchToThread@0    1002b0c8     kernel32:KERNEL32.dll
 0002:000000cc       \177KERNEL32_NULL_THUNK_DATA 1002b0cc     kernel32:KERNEL32.dll
 0002:000000d0       __imp_?_Xlength_error@std@@YAXPBD@Z 1002b0d0     msvcprtd:MSVCP100D.dll
 0002:000000d4       __imp_??0_Container_base12@std@@QAE@XZ 1002b0d4     msvcprtd:MSVCP100D.dll
 0002:000000d8       __imp_?_Orphan_all@_Container_base12@std@@QAEXXZ 1002b0d8     msvcprtd:MSVCP100D.dll
 0002:000000dc       __imp_??1_Container_base12@std@@QAE@XZ 1002b0dc     msvcprtd:MSVCP100D.dll
 0002:000000e0       __imp_??0_Lockit@std@@QAE@H@Z 1002b0e0     msvcprtd:MSVCP100D.dll
 0002:000000e4       __imp_?_Getpfirst@_Container_base12@std@@QBEPAPAU_Iterator_base12@2@XZ 1002b0e4     msvcprtd:MSVCP100D.dll
 0002:000000e8       __imp_??1_Lockit@std@@QAE@XZ 1002b0e8     msvcprtd:MSVCP100D.dll
 0002:000000ec       __imp_?_Debug_message@std@@YAXPB_W0I@Z 1002b0ec     msvcprtd:MSVCP100D.dll
 0002:000000f0       \177MSVCP100D_NULL_THUNK_DATA 1002b0f0     msvcprtd:MSVCP100D.dll
 0002:000000f4       __imp___onexit             1002b0f4     MSVCRTD:MSVCR100D.dll
 0002:000000f8       __imp___malloc_dbg         1002b0f8     MSVCRTD:MSVCR100D.dll
 0002:000000fc       __imp___lock               1002b0fc     MSVCRTD:MSVCR100D.dll
 0002:00000100       __imp___encoded_null       1002b100     MSVCRTD:MSVCR100D.dll
 0002:00000104       __imp___CrtSetCheckCount   1002b104     MSVCRTD:MSVCR100D.dll
 0002:00000108       __imp___initterm           1002b108     MSVCRTD:MSVCR100D.dll
 0002:0000010c       __imp___initterm_e         1002b10c     MSVCRTD:MSVCR100D.dll
 0002:00000110       __imp___amsg_exit          1002b110     MSVCRTD:MSVCR100D.dll
 0002:00000114       __imp____CppXcptFilter     1002b114     MSVCRTD:MSVCR100D.dll
 0002:00000118       __imp___crt_debugger_hook  1002b118     MSVCRTD:MSVCR100D.dll
 0002:0000011c       __imp_?_type_info_dtor_internal_method@type_info@@QAEXXZ 1002b11c     MSVCRTD:MSVCR100D.dll
 0002:00000120       __imp___except_handler4_common 1002b120     MSVCRTD:MSVCR100D.dll
 0002:00000124       __imp____dllonexit         1002b124     MSVCRTD:MSVCR100D.dll
 0002:00000128       __imp___unlock             1002b128     MSVCRTD:MSVCR100D.dll
 0002:0000012c       __imp____clean_type_info_names_internal 1002b12c     MSVCRTD:MSVCR100D.dll
 0002:00000130       __imp_?name@type_info@@QBEPBDPAU__type_info_node@@@Z 1002b130     MSVCRTD:MSVCR100D.dll
 0002:00000130       __imp_?_name_internal_method@type_info@@QBEPBDPAU__type_info_node@@@Z 1002b130     MSVCRTD:MSVCR100D.dll
 0002:00000134       __imp___vsnprintf          1002b134     MSVCRTD:MSVCR100D.dll
 0002:00000134       __imp__vsnprintf           1002b134     MSVCRTD:MSVCR100D.dll
 0002:00000138       __imp_?terminate@@YAXXZ    1002b138     MSVCRTD:MSVCR100D.dll
 0002:0000013c       __imp_?__ExceptionPtrRethrow@@YAXPBX@Z 1002b13c     MSVCRTD:MSVCR100D.dll
 0002:00000140       __imp__memmove             1002b140     MSVCRTD:MSVCR100D.dll
 0002:00000144       __imp___CrtDbgReportW      1002b144     MSVCRTD:MSVCR100D.dll
 0002:00000148       __imp___invalid_parameter  1002b148     MSVCRTD:MSVCR100D.dll
 0002:0000014c       __imp_?__ExceptionPtrCopyException@@YAXPAXPBX1@Z 1002b14c     MSVCRTD:MSVCR100D.dll
 0002:00000150       __imp____RTtypeid          1002b150     MSVCRTD:MSVCR100D.dll
 0002:00000154       __imp_?__ExceptionPtrCopy@@YAXPAXPBX@Z 1002b154     MSVCRTD:MSVCR100D.dll
 0002:00000158       __imp_?__ExceptionPtrCreate@@YAXPAX@Z 1002b158     MSVCRTD:MSVCR100D.dll
 0002:0000015c       __imp_?__ExceptionPtrCurrentException@@YAXPAX@Z 1002b15c     MSVCRTD:MSVCR100D.dll
 0002:00000160       __imp_?__ExceptionPtrDestroy@@YAXPAX@Z 1002b160     MSVCRTD:MSVCR100D.dll
 0002:00000164       __imp___wassert            1002b164     MSVCRTD:MSVCR100D.dll
 0002:00000168       __imp__exit                1002b168     MSVCRTD:MSVCR100D.dll
 0002:0000016c       __imp___beginthreadex      1002b16c     MSVCRTD:MSVCR100D.dll
 0002:00000170       __imp___errno              1002b170     MSVCRTD:MSVCR100D.dll
 0002:00000174       __imp__fputs               1002b174     MSVCRTD:MSVCR100D.dll
 0002:00000178       __imp__getenv              1002b178     MSVCRTD:MSVCR100D.dll
 0002:0000017c       __imp__strcmp              1002b17c     MSVCRTD:MSVCR100D.dll
 0002:00000180       __imp_??0exception@std@@QAE@XZ 1002b180     MSVCRTD:MSVCR100D.dll
 0002:00000184       __imp_??0exception@std@@QAE@ABQBDH@Z 1002b184     MSVCRTD:MSVCR100D.dll
 0002:00000188       __imp_??1exception@std@@UAE@XZ 1002b188     MSVCRTD:MSVCR100D.dll
 0002:0000018c       __imp_?what@exception@std@@UBEPBDXZ 1002b18c     MSVCRTD:MSVCR100D.dll
 0002:00000190       __imp_??0exception@std@@QAE@ABQBD@Z 1002b190     MSVCRTD:MSVCR100D.dll
 0002:00000194       __imp__strchr              1002b194     MSVCRTD:MSVCR100D.dll
 0002:00000198       __imp_??0exception@std@@QAE@ABV01@@Z 1002b198     MSVCRTD:MSVCR100D.dll
 0002:0000019c       __imp__sprintf             1002b19c     MSVCRTD:MSVCR100D.dll
 0002:000001a0       __imp__strerror            1002b1a0     MSVCRTD:MSVCR100D.dll
 0002:000001a4       __imp__strncpy             1002b1a4     MSVCRTD:MSVCR100D.dll
 0002:000001a8       __imp____iob_func          1002b1a8     MSVCRTD:MSVCR100D.dll
 0002:000001ac       __imp__fprintf             1002b1ac     MSVCRTD:MSVCR100D.dll
 0002:000001b0       __imp___CrtDbgReport       1002b1b0     MSVCRTD:MSVCR100D.dll
 0002:000001b4       __imp_??_V@YAXPAX@Z        1002b1b4     MSVCRTD:MSVCR100D.dll
 0002:000001b8       __imp_??2@YAPAXI@Z         1002b1b8     MSVCRTD:MSVCR100D.dll
 0002:000001bc       __imp__free                1002b1bc     MSVCRTD:MSVCR100D.dll
 0002:000001c0       __imp___strdup             1002b1c0     MSVCRTD:MSVCR100D.dll
 0002:000001c4       __imp__wcscmp              1002b1c4     MSVCRTD:MSVCR100D.dll
 0002:000001c8       __imp__malloc              1002b1c8     MSVCRTD:MSVCR100D.dll
 0002:000001cc       __imp___wcsdup             1002b1cc     MSVCRTD:MSVCR100D.dll
 0002:000001d0       __imp__strlen              1002b1d0     MSVCRTD:MSVCR100D.dll
 0002:000001d4       __imp__strcpy              1002b1d4     MSVCRTD:MSVCR100D.dll
 0002:000001d8       __imp__memcpy              1002b1d8     MSVCRTD:MSVCR100D.dll
 0002:000001dc       __imp_??3@YAXPAX@Z         1002b1dc     MSVCRTD:MSVCR100D.dll
 0002:000001e0       __imp___purecall           1002b1e0     MSVCRTD:MSVCR100D.dll
 0002:000001e4       __imp__memset              1002b1e4     MSVCRTD:MSVCR100D.dll
 0002:000001e8       __imp___CxxThrowException@8 1002b1e8     MSVCRTD:MSVCR100D.dll
 0002:000001ec       __imp____CxxFrameHandler3  1002b1ec     MSVCRTD:MSVCR100D.dll
 0002:000001f0       __imp___free_dbg           1002b1f0     MSVCRTD:MSVCR100D.dll
 0002:000001f4       \177MSVCR100D_NULL_THUNK_DATA 1002b1f4     MSVCRTD:MSVCR100D.dll
 0002:000001f8       ___xc_a                    1002b1f8     MSVCRTD:cinitexe.obj
 0002:0000023c       ___xc_z                    1002b23c     MSVCRTD:cinitexe.obj
 0002:00000240       ___xi_a                    1002b240     MSVCRTD:cinitexe.obj
 0002:00000248       ___xi_z                    1002b248     MSVCRTD:cinitexe.obj
 0002:0000026c       ?value@?$integral_constant@_N$0A@@tr1@std@@2_NB 1002b26c     concurrent_hash_map.obj
 0002:0000026d       ?value@?$integral_constant@_N$00@tr1@std@@2_NB 1002b26d     concurrent_hash_map.obj
 0002:00000270       ?value@?$integral_constant@I$0A@@tr1@std@@2IB 1002b270     concurrent_hash_map.obj
 0002:00000274       ?_Rank@?$_Arithmetic_traits@_N@std@@2HB 1002b274     concurrent_hash_map.obj
 0002:00000278       ?_Rank@?$_Arithmetic_traits@D@std@@2HB 1002b278     concurrent_hash_map.obj
 0002:0000027c       ?_Rank@?$_Arithmetic_traits@C@std@@2HB 1002b27c     concurrent_hash_map.obj
 0002:00000280       ?_Rank@?$_Arithmetic_traits@E@std@@2HB 1002b280     concurrent_hash_map.obj
 0002:00000284       ?_Rank@?$_Arithmetic_traits@F@std@@2HB 1002b284     concurrent_hash_map.obj
 0002:00000288       ?_Rank@?$_Arithmetic_traits@G@std@@2HB 1002b288     concurrent_hash_map.obj
 0002:0000028c       ?_Rank@?$_Arithmetic_traits@H@std@@2HB 1002b28c     concurrent_hash_map.obj
 0002:00000290       ?_Rank@?$_Arithmetic_traits@I@std@@2HB 1002b290     concurrent_hash_map.obj
 0002:00000294       ?_Rank@?$_Arithmetic_traits@J@std@@2HB 1002b294     concurrent_hash_map.obj
 0002:00000298       ?_Rank@?$_Arithmetic_traits@K@std@@2HB 1002b298     concurrent_hash_map.obj
 0002:0000029c       ?_Rank@?$_Arithmetic_traits@_J@std@@2HB 1002b29c     concurrent_hash_map.obj
 0002:000002a0       ?_Rank@?$_Arithmetic_traits@_K@std@@2HB 1002b2a0     concurrent_hash_map.obj
 0002:000002a4       ?_Rank@?$_Arithmetic_traits@M@std@@2HB 1002b2a4     concurrent_hash_map.obj
 0002:000002a8       ?_Rank@?$_Arithmetic_traits@N@std@@2HB 1002b2a8     concurrent_hash_map.obj
 0002:000002ac       ?_Rank@?$_Arithmetic_traits@O@std@@2HB 1002b2ac     concurrent_hash_map.obj
 0002:000002b0       ?collate@?$_Locbase@H@std@@2HB 1002b2b0     concurrent_hash_map.obj
 0002:000002b4       ?ctype@?$_Locbase@H@std@@2HB 1002b2b4     concurrent_hash_map.obj
 0002:000002b8       ?monetary@?$_Locbase@H@std@@2HB 1002b2b8     concurrent_hash_map.obj
 0002:000002bc       ?numeric@?$_Locbase@H@std@@2HB 1002b2bc     concurrent_hash_map.obj
 0002:000002c0       ?time@?$_Locbase@H@std@@2HB 1002b2c0     concurrent_hash_map.obj
 0002:000002c4       ?messages@?$_Locbase@H@std@@2HB 1002b2c4     concurrent_hash_map.obj
 0002:000002c8       ?all@?$_Locbase@H@std@@2HB 1002b2c8     concurrent_hash_map.obj
 0002:000002cc       ?none@?$_Locbase@H@std@@2HB 1002b2cc     concurrent_hash_map.obj
 0002:000002d0       ?skipws@?$_Iosb@H@std@@2W4_Fmtflags@12@B 1002b2d0     concurrent_hash_map.obj
 0002:000002d4       ?unitbuf@?$_Iosb@H@std@@2W4_Fmtflags@12@B 1002b2d4     concurrent_hash_map.obj
 0002:000002d8       ?uppercase@?$_Iosb@H@std@@2W4_Fmtflags@12@B 1002b2d8     concurrent_hash_map.obj
 0002:000002dc       ?showbase@?$_Iosb@H@std@@2W4_Fmtflags@12@B 1002b2dc     concurrent_hash_map.obj
 0002:000002e0       ?showpoint@?$_Iosb@H@std@@2W4_Fmtflags@12@B 1002b2e0     concurrent_hash_map.obj
 0002:000002e4       ?showpos@?$_Iosb@H@std@@2W4_Fmtflags@12@B 1002b2e4     concurrent_hash_map.obj
 0002:000002e8       ?left@?$_Iosb@H@std@@2W4_Fmtflags@12@B 1002b2e8     concurrent_hash_map.obj
 0002:000002ec       ?right@?$_Iosb@H@std@@2W4_Fmtflags@12@B 1002b2ec     concurrent_hash_map.obj
 0002:000002f0       ?internal@?$_Iosb@H@std@@2W4_Fmtflags@12@B 1002b2f0     concurrent_hash_map.obj
 0002:000002f4       ?dec@?$_Iosb@H@std@@2W4_Fmtflags@12@B 1002b2f4     concurrent_hash_map.obj
 0002:000002f8       ?oct@?$_Iosb@H@std@@2W4_Fmtflags@12@B 1002b2f8     concurrent_hash_map.obj
 0002:000002fc       ?hex@?$_Iosb@H@std@@2W4_Fmtflags@12@B 1002b2fc     concurrent_hash_map.obj
 0002:00000300       ?scientific@?$_Iosb@H@std@@2W4_Fmtflags@12@B 1002b300     concurrent_hash_map.obj
 0002:00000304       ?fixed@?$_Iosb@H@std@@2W4_Fmtflags@12@B 1002b304     concurrent_hash_map.obj
 0002:00000308       ?hexfloat@?$_Iosb@H@std@@2W4_Fmtflags@12@B 1002b308     concurrent_hash_map.obj
 0002:0000030c       ?boolalpha@?$_Iosb@H@std@@2W4_Fmtflags@12@B 1002b30c     concurrent_hash_map.obj
 0002:00000310       ?_Stdio@?$_Iosb@H@std@@2W4_Fmtflags@12@B 1002b310     concurrent_hash_map.obj
 0002:00000314       ?adjustfield@?$_Iosb@H@std@@2W4_Fmtflags@12@B 1002b314     concurrent_hash_map.obj
 0002:00000318       ?basefield@?$_Iosb@H@std@@2W4_Fmtflags@12@B 1002b318     concurrent_hash_map.obj
 0002:0000031c       ?floatfield@?$_Iosb@H@std@@2W4_Fmtflags@12@B 1002b31c     concurrent_hash_map.obj
 0002:00000320       ?goodbit@?$_Iosb@H@std@@2W4_Iostate@12@B 1002b320     concurrent_hash_map.obj
 0002:00000324       ?eofbit@?$_Iosb@H@std@@2W4_Iostate@12@B 1002b324     concurrent_hash_map.obj
 0002:00000328       ?failbit@?$_Iosb@H@std@@2W4_Iostate@12@B 1002b328     concurrent_hash_map.obj
 0002:0000032c       ?badbit@?$_Iosb@H@std@@2W4_Iostate@12@B 1002b32c     concurrent_hash_map.obj
 0002:00000330       ?_Hardfail@?$_Iosb@H@std@@2W4_Iostate@12@B 1002b330     concurrent_hash_map.obj
 0002:00000334       ?in@?$_Iosb@H@std@@2W4_Openmode@12@B 1002b334     concurrent_hash_map.obj
 0002:00000338       ?out@?$_Iosb@H@std@@2W4_Openmode@12@B 1002b338     concurrent_hash_map.obj
 0002:0000033c       ?ate@?$_Iosb@H@std@@2W4_Openmode@12@B 1002b33c     concurrent_hash_map.obj
 0002:00000340       ?app@?$_Iosb@H@std@@2W4_Openmode@12@B 1002b340     concurrent_hash_map.obj
 0002:00000344       ?trunc@?$_Iosb@H@std@@2W4_Openmode@12@B 1002b344     concurrent_hash_map.obj
 0002:00000348       ?_Nocreate@?$_Iosb@H@std@@2W4_Openmode@12@B 1002b348     concurrent_hash_map.obj
 0002:0000034c       ?_Noreplace@?$_Iosb@H@std@@2W4_Openmode@12@B 1002b34c     concurrent_hash_map.obj
 0002:00000350       ?binary@?$_Iosb@H@std@@2W4_Openmode@12@B 1002b350     concurrent_hash_map.obj
 0002:00000354       ?beg@?$_Iosb@H@std@@2W4_Seekdir@12@B 1002b354     concurrent_hash_map.obj
 0002:00000358       ?cur@?$_Iosb@H@std@@2W4_Seekdir@12@B 1002b358     concurrent_hash_map.obj
 0002:0000035c       ?end@?$_Iosb@H@std@@2W4_Seekdir@12@B 1002b35c     concurrent_hash_map.obj
 0002:00000360       ?LOOPS_BEFORE_YIELD@atomic_backoff@internal@tbb@@0HB 1002b360     concurrent_hash_map.obj
 0002:00000364       ?is_rw_mutex@spin_rw_mutex_v3@tbb@@2_NB 1002b364     concurrent_hash_map.obj
 0002:00000365       ?is_recursive_mutex@spin_rw_mutex_v3@tbb@@2_NB 1002b365     concurrent_hash_map.obj
 0002:00000366       ?is_fair_mutex@spin_rw_mutex_v3@tbb@@2_NB 1002b366     concurrent_hash_map.obj
 0002:00000368       ?WRITER@spin_rw_mutex_v3@tbb@@0HB 1002b368     concurrent_hash_map.obj
 0002:0000036c       ?WRITER_PENDING@spin_rw_mutex_v3@tbb@@0HB 1002b36c     concurrent_hash_map.obj
 0002:00000370       ?READERS@spin_rw_mutex_v3@tbb@@0HB 1002b370     concurrent_hash_map.obj
 0002:00000374       ?ONE_READER@spin_rw_mutex_v3@tbb@@0HB 1002b374     concurrent_hash_map.obj
 0002:00000378       ?BUSY@spin_rw_mutex_v3@tbb@@0HB 1002b378     concurrent_hash_map.obj
 0002:0000037c       ?embedded_block@hash_map_base@internal@interface5@tbb@@2IB 1002b37c     concurrent_hash_map.obj
 0002:00000380       ?embedded_buckets@hash_map_base@internal@interface5@tbb@@2IB 1002b380     concurrent_hash_map.obj
 0002:00000384       ?first_block@hash_map_base@internal@interface5@tbb@@2IB 1002b384     concurrent_hash_map.obj
 0002:00000388       ?pointers_per_table@hash_map_base@internal@interface5@tbb@@2IB 1002b388     concurrent_hash_map.obj
 0002:0000038c       ?n_segment_bits@hash_map_segment_base@internal@tbb@@2IB 1002b38c     concurrent_hash_map.obj
 0002:00000390       ?max_physical_size@hash_map_segment_base@internal@tbb@@2IB 1002b390     concurrent_hash_map.obj
 0002:00000394       ?is_rw_mutex@spin_mutex@tbb@@2_NB 1002b394     concurrent_queue.obj
 0002:00000395       ?is_recursive_mutex@spin_mutex@tbb@@2_NB 1002b395     concurrent_queue.obj
 0002:00000396       ?is_fair_mutex@spin_mutex@tbb@@2_NB 1002b396     concurrent_queue.obj
 0002:00000398       ?alignment@?$work_around_alignment_bug@$07Vscoped_lock@spin_mutex@tbb@@@internal@tbb@@2IB 1002b398     concurrent_queue.obj
 0002:0000039c       ?phi@concurrent_queue_rep_base@internal@strict_ppl@tbb@@1IB 1002b39c     concurrent_queue.obj
 0002:000003a0       ?n_queue@concurrent_queue_rep_base@internal@strict_ppl@tbb@@2IB 1002b3a0     concurrent_queue.obj
 0002:000003a4       ?max_semaphore_cnt@semaphore@internal@tbb@@0HB 1002b3a4     concurrent_queue.obj
 0002:000003a8       ?alignment@?$work_around_alignment_bug@$03Vbinary_semaphore@internal@tbb@@@internal@tbb@@2IB 1002b3a8     concurrent_queue.obj
 0002:000008c8       ?phi@concurrent_queue_rep@internal@tbb@@0IB 1002b8c8     concurrent_queue.obj
 0002:000008cc       ?n_queue@concurrent_queue_rep@internal@tbb@@2IB 1002b8cc     concurrent_queue.obj
 0002:000008d0       ?infinite_capacity@concurrent_queue_rep@internal@tbb@@2HB 1002b8d0     concurrent_queue.obj
 0002:000008d8       ??_7concurrent_queue_base_v3@internal@tbb@@6B@ 1002b8d8     concurrent_queue.obj
 0002:000008f0       ??_C@_0DL@HOEHMADF@d?3?2work?2project?2orca?2deps?2tbb?2sr@ 1002b8f0     concurrent_queue.obj
 0002:0000092c       ??_C@_0CF@KIMHCJNJ@head?4next?$DN?$DN?$CGhead?5?$CG?$CG?5head?4prev?$DN?$DN?$CG@ 1002b92c     concurrent_queue.obj
 0002:00000954       ??_C@_0BG@NCNHOMPJ@the?5list?5is?5not?5empty?$AA@ 1002b954     concurrent_queue.obj
 0002:0000096c       ??_C@_0BA@CPHLNOGI@?$CBthr?4in_waitset?$AA@ 1002b96c     concurrent_queue.obj
 0002:0000097c       ??_C@_0BE@EJJDCDNJ@still?5in?5the?5queue?$DP?$AA@ 1002b97c     concurrent_queue.obj
 0002:00000990       ??_C@_09FABKCACJ@thr?4ready?$AA@ 1002b990     concurrent_queue.obj
 0002:0000099c       ??_C@_0DC@HHMBEOFF@use?5of?5commit_wait?$CI?$CJ?5without?5pri@ 1002b99c     concurrent_queue.obj
 0002:000009d0       ??_C@_0CD@EIJMDMCC@?4?4?1?4?4?1src?1tbb?1concurrent_queue?4c@ 1002b9d0     concurrent_queue.obj
 0002:000009f4       ??_C@_01JBBJJEPG@p?$AA@    1002b9f4     concurrent_queue.obj
 0002:00000e50       ?page_size@helper@concurrent_vector_base_v3@internal@tbb@@2IB 1002be50     concurrent_vector.obj
 0002:00000e54       ??_C@_0O@KKLAEBPF@base?5?$DM?$DN?5start?$AA@ 1002be54     concurrent_vector.obj
 0002:00000e64       ??_C@_0BH@JGMCJCL@first_block?5?$HM?$HM?5?$CBfinish?$AA@ 1002be64     concurrent_vector.obj
 0002:00000e7c       ??_C@_0CE@HGMBLKBK@?4?4?1?4?4?1src?1tbb?1concurrent_vector?4@ 1002be7c     concurrent_vector.obj
 0002:00000ea0       ??_C@_0BA@LIFNIGJ@start?5?$DM?$DN?5finish?$AA@ 1002bea0     concurrent_vector.obj
 0002:00000eb0       ??_C@_0DO@OKOOCOCO@D?3?2work?2project?2orca?2deps?2tbb?2in@ 1002beb0     concurrent_vector.obj
 0002:00000ef0       ??_C@_0DA@BPLMLJFD@array?5?$DM?$DN?5internal?3?3vector_alloca@ 1002bef0     concurrent_vector.obj
 0002:00000f20       ??_C@_0CA@LKPOEAOC@should?5have?5been?5freed?5by?5clear?$AA@ 1002bf20     concurrent_vector.obj
 0002:0000112c       ??_C@_0BP@JDBGDCMH@?4?4?1?4?4?1src?1tbb?1dynamic_link?4cpp?$AA@ 1002c12c     dynamic_link.obj
 0002:0000114c       ??_C@_07EJHLHDPE@ind?5?$DM?58?$AA@ 1002c14c     dynamic_link.obj
 0002:00001154       ??_C@_0BM@JGJMBPHJ@Too?5many?5modules?5are?5loaded?$AA@ 1002c154     dynamic_link.obj
 0002:000028b4       ?binding_required@task_group_context@tbb@@0W4kind_type@12@B 1002d8b4     pipeline.obj
 0002:000028b8       ?binding_completed@task_group_context@tbb@@0W4kind_type@12@B 1002d8b8     pipeline.obj
 0002:000028bc       ?detached@task_group_context@tbb@@0W4kind_type@12@B 1002d8bc     pipeline.obj
 0002:000028c0       ?dying@task_group_context@tbb@@0W4kind_type@12@B 1002d8c0     pipeline.obj
 0002:000028c4       ?filter_is_serial@filter@tbb@@1EB 1002d8c4     pipeline.obj
 0002:000028c5       ?filter_is_out_of_order@filter@tbb@@1EB 1002d8c5     pipeline.obj
 0002:000028c6       ?filter_is_bound@filter@tbb@@1EB 1002d8c6     pipeline.obj
 0002:000028c7       ?filter_may_emit_null@filter@tbb@@1EB 1002d8c7     pipeline.obj
 0002:000028c8       ?exact_exception_propagation@filter@tbb@@1EB 1002d8c8     pipeline.obj
 0002:000028c9       ?current_version@filter@tbb@@1EB 1002d8c9     pipeline.obj
 0002:000028ca       ?version_mask@filter@tbb@@1EB 1002d8ca     pipeline.obj
 0002:00003084       ?initial_buffer_size@input_buffer@internal@tbb@@0KB 1002e084     pipeline.obj
 0002:00003088       ??_C@_0DB@DCACNKPK@d?3?2work?2project?2orca?2deps?2tbb?2in@ 1002e088     pipeline.obj
 0002:000030bc       ??_C@_0BK@BLKDHJIK@prefix?$CI?$CJ?4state?$DN?$DNexecuting?$AA@ 1002e0bc     pipeline.obj
 0002:000030d8       ??_C@_0BF@FLEJEMAB@execute?5not?5running?$DP?$AA@ 1002e0d8     pipeline.obj
 0002:000030f0       ??_C@_0BL@EGLAJFNJ@?4?4?1?4?4?1src?1tbb?1pipeline?4cpp?$AA@ 1002e0f0     pipeline.obj
 0002:0000310c       ??_C@_06PJFJBKOE@my_sem?$AA@ 1002e10c     pipeline.obj
 0002:00003114       ??_C@_0CC@OJFIPBCH@?$CItokendiff_t?$CJ?$CItoken?9low_token?$CJ?$DO?$DN@ 1002e114     pipeline.obj
 0002:0000313c       ??_7stage_task@internal@tbb@@6B@ 1002e13c     pipeline.obj
 0002:0000314c       ??_7task@tbb@@6B@          1002e14c     pipeline.obj
 0002:00003158       ??_C@_0P@PMGHPDFJ@is_cancelled?$CI?$CJ?$AA@ 1002e158     pipeline.obj
 0002:00003168       ??_C@_0DC@FJGKNBB@Trying?5to?5finalize?5the?5task?5that@ 1002e168     pipeline.obj
 0002:000031a0       ??_7pipeline@tbb@@6B@      1002e1a0     pipeline.obj
 0002:000031a4       ??_C@_05HIFJDKLD@array?$AA@ 1002e1a4     pipeline.obj
 0002:000031ac       ??_C@_0BN@LCAOOCFI@Failed?5to?5destroy?5filter?5TLS?$AA@ 1002e1ac     pipeline.obj
 0002:000031cc       ??_C@_07DEMLHIDL@?$CBmy_sem?$AA@ 1002e1cc     pipeline.obj
 0002:000031d4       ??_C@_0BN@OAIFFPEB@TLS?5not?5allocated?5for?5filter?$AA@ 1002e1d4     pipeline.obj
 0002:000031f4       ??_C@_0BI@GHAGBPIJ@my_pipeline?4filter_list?$AA@ 1002e1f4     pipeline.obj
 0002:00003210       ??_7pipeline_root_task@internal@tbb@@6B@ 1002e210     pipeline.obj
 0002:0000321c       ??_C@_0DE@MFDJBKCP@current_filter?9?$DOprev_filter_in_p@ 1002e21c     pipeline.obj
 0002:00003250       ??_C@_0CF@ELPNJBIG@previous?5filter?5is?5not?5thread?9bo@ 1002e250     pipeline.obj
 0002:00003278       ??_C@_0BM@EKBMLCCI@?$CBcurrent_filter?9?$DOis_bound?$CI?$CJ?$AA@ 1002e278     pipeline.obj
 0002:00003294       ??_C@_0BI@HDJOOCC@filter?5is?5thread?9bound?$DP?$AA@ 1002e294     pipeline.obj
 0002:000032b0       ??_7filter@tbb@@6B@        1002e2b0     pipeline.obj
 0002:000032bc       ?is_rw_mutex@queuing_mutex@tbb@@2_NB 1002e2bc     queuing_mutex.obj
 0002:000032bd       ?is_recursive_mutex@queuing_mutex@tbb@@2_NB 1002e2bd     queuing_mutex.obj
 0002:000032be       ?is_fair_mutex@queuing_mutex@tbb@@2_NB 1002e2be     queuing_mutex.obj
 0002:00003472       ?is_rw_mutex@queuing_rw_mutex@tbb@@2_NB 1002e472     queuing_rw_mutex.obj
 0002:00003473       ?is_recursive_mutex@queuing_rw_mutex@tbb@@2_NB 1002e473     queuing_rw_mutex.obj
 0002:00003474       ?is_fair_mutex@queuing_rw_mutex@tbb@@2_NB 1002e474     queuing_rw_mutex.obj
 0002:000049f0       ?is_rw_mutex@critical_section_v4@internal@tbb@@2_NB 1002f9f0     critical_section.obj
 0002:000049f1       ?is_recursive_mutex@critical_section_v4@internal@tbb@@2_NB 1002f9f1     critical_section.obj
 0002:000049f2       ?is_fair_mutex@critical_section_v4@internal@tbb@@2_NB 1002f9f2     critical_section.obj
 0002:00004a40       ?binding_required@task_group_context@tbb@@2W4kind_type@12@B 1002fa40     task.obj
 0002:00004a44       ?binding_completed@task_group_context@tbb@@2W4kind_type@12@B 1002fa44     task.obj
 0002:00004a48       ?detached@task_group_context@tbb@@2W4kind_type@12@B 1002fa48     task.obj
 0002:00004a4c       ?dying@task_group_context@tbb@@2W4kind_type@12@B 1002fa4c     task.obj
 0002:00004a50       ?automatic@task_scheduler_init@tbb@@2HB 1002fa50     task.obj
 0002:00004a54       ?deferred@task_scheduler_init@tbb@@2HB 1002fa54     task.obj
 0002:00004a58       ?c_dont_unload@factory@rml@@2IB 1002fa58     task.obj
 0002:00004a5c       ?pool_bit@task_proxy@internal@tbb@@2HB 1002fa5c     task.obj
 0002:00004a60       ?mailbox_bit@task_proxy@internal@tbb@@2HB 1002fa60     task.obj
 0002:00004a64       ?location_mask@task_proxy@internal@tbb@@2HB 1002fa64     task.obj
 0002:0000509c       ?quick_task_size@generic_scheduler@internal@tbb@@0IB 1003009c     task.obj
 0002:000050a0       ?null_arena_index@generic_scheduler@internal@tbb@@0IB 100300a0     task.obj
 0002:000050a4       ?min_task_pool_size@generic_scheduler@internal@tbb@@0IB 100300a4     task.obj
 0002:000050a8       ?_EEM_DS@?$deque@PAVtask@tbb@@V?$tbb_allocator@PAVtask@tbb@@@2@@std@@2HB 100300a8     task.obj
 0002:000050ac       ?SNAPSHOT_EMPTY@arena@internal@tbb@@0IB 100300ac     task.obj
 0002:000050b0       ?SNAPSHOT_FULL@arena@internal@tbb@@0IB 100300b0     task.obj
 0002:000050b4       ?factor_power@affinity_partition_type@internal@interface6@tbb@@0IB 100300b4     task.obj
 0002:000050b8       ?factor@affinity_partition_type@internal@interface6@tbb@@0IB 100300b8     task.obj
 0002:000050bc       ?range_pool_size@affinity_partition_type@internal@interface6@tbb@@2IB 100300bc     task.obj
 0002:000050c0       ?range_pool_size@auto_partition_type@internal@interface6@tbb@@2IB 100300c0     task.obj
 0002:000050c4       ?VICTIM_CHUNKS@old_auto_partition_type@internal@interface6@tbb@@0IB 100300c4     task.obj
 0002:000050c8       ??_C@_0DA@KLLDDOGK@?$CIunsigned?$CJtask?4state?$CI?$CJ?$DM?$DN?$CIunsigne@ 100300c8     task.obj
 0002:000050f8       ??_C@_0BN@EHGLMPPM@corrupt?5task?5?$CIinvalid?5state?$CJ?$AA@ 100300f8     task.obj
 0002:00005118       ??_C@_0CH@OFLAEONP@?$CIuintptr_t?$CJ?$CGtask?5?$CF?5task_alignmen@ 10030118     task.obj
 0002:00005140       ??_C@_0BA@EMBLABKF@misaligned?5task?$AA@ 10030140     task.obj
 0002:00005150       ??_C@_0BE@NMBEFKAA@?$CBis_poisoned?$CI?$CGtask?$CJ?$AA@ 10030150     task.obj
 0002:00005164       ??_C@_0DJ@NDICFPD@d?3?2work?2project?2orca?2deps?2tbb?2sr@ 10030164     task.obj
 0002:000051a0       ??_C@_08GFOJHJBL@?$CGtask?$CB?$DN0?$AA@ 100301a0     task.obj
 0002:000051ac       ??_C@_1CO@FNIDKHMC@?$AAd?$AAe?$AAq?$AAu?$AAe?$AA?5?$AAe?$AAm?$AAp?$AAt?$AAy?$AA?5?$AAb?$AAe?$AAf?$AAo?$AAr?$AAe?$AA?5?$AAp?$AAo?$AAp?$AA?$AA@ 100301ac     task.obj
 0002:000051e0       ??_C@_1HO@MNIFOAPO@?$AAC?$AA?3?$AA?2?$AAP?$AAr?$AAo?$AAg?$AAr?$AAa?$AAm?$AA?5?$AAF?$AAi?$AAl?$AAe?$AAs?$AA?2?$AAM?$AAi?$AAc?$AAr?$AAo?$AAs?$AAo?$AAf?$AAt?$AA?5?$AAV?$AAi?$AAs?$AAu?$AAa@ 100301e0     task.obj
 0002:0000591c       ??_7runtime_error@std@@6B@ 1003091c     tbb_misc.obj
 0002:00005928       ??_7bad_alloc@std@@6B@     10030928     tbb_misc.obj
 0002:00005930       ??_C@_0P@GHFPNOJB@bad?5allocation?$AA@ 10030930     tbb_misc.obj
 0002:00005944       ??_7invalid_argument@std@@6B@ 10030944     tbb_misc.obj
 0002:00005950       ??_7logic_error@std@@6B@   10030950     tbb_misc.obj
 0002:0000595c       ??_7length_error@std@@6B@  1003095c     tbb_misc.obj
 0002:00005968       ??_7out_of_range@std@@6B@  10030968     tbb_misc.obj
 0002:00005974       ??_7range_error@std@@6B@   10030974     tbb_misc.obj
 0002:00005980       ??_7bad_last_alloc@tbb@@6B@ 10030980     tbb_misc.obj
 0002:0000598c       ??_7missing_wait@tbb@@6B@  1003098c     tbb_misc.obj
 0002:00005998       ??_7invalid_multiple_scheduling@tbb@@6B@ 10030998     tbb_misc.obj
 0002:000059a4       ??_7improper_lock@tbb@@6B@ 100309a4     tbb_misc.obj
 0002:000059b0       ??_7user_abort@tbb@@6B@    100309b0     tbb_misc.obj
 0002:00005e0a       ?is_rw_mutex@mutex@tbb@@2_NB 10030e0a     mutex.obj
 0002:00005e0b       ?is_recursive_mutex@mutex@tbb@@2_NB 10030e0b     mutex.obj
 0002:00005e0c       ?is_fair_mutex@mutex@tbb@@2_NB 10030e0c     mutex.obj
 0002:00005e10       ?alignment@?$work_around_alignment_bug@$03Vscoped_lock@mutex@tbb@@@internal@tbb@@2IB 10030e10     mutex.obj
 0002:00006218       ?is_rw_mutex@recursive_mutex@tbb@@2_NB 10031218     recursive_mutex.obj
 0002:00006219       ?is_recursive_mutex@recursive_mutex@tbb@@2_NB 10031219     recursive_mutex.obj
 0002:0000621a       ?is_fair_mutex@recursive_mutex@tbb@@2_NB 1003121a     recursive_mutex.obj
 0002:0000621c       ?alignment@?$work_around_alignment_bug@$03Vscoped_lock@recursive_mutex@tbb@@@internal@tbb@@2IB 1003121c     recursive_mutex.obj
 0002:000067a0       __real@408f400000000000    100317a0     condition_variable.obj
 0002:00006880       __real@41efffffffe00000    10031880     tbb_thread.obj
 0002:00006888       __real@0000000000000000    10031888     tbb_thread.obj
 0002:0000693c       ??_C@_0N@HAOHNMDE@Kernel32?4dll?$AA@ 1003193c     semaphore.obj
 0002:0000694c       ??_C@_0BM@NHKJOJHO@?4?4?1?4?4?1src?1tbb?1semaphore?4cpp?$AA@ 1003194c     semaphore.obj
 0002:00006968       ??_C@_0EC@KJLJIIMB@?$CIuintptr_t?$CJ__TBB_init_binsem?$DN?$DN?$CIu@ 10031968     semaphore.obj
 0002:00006b40       ??_7private_server@rml@internal@tbb@@6B@ 10031b40     private_server.obj
 0002:00006b64       ??_C@_0CB@PODKGLOL@?4?4?1?4?4?1src?1tbb?1private_server?4cpp@ 10031b64     private_server.obj
 0002:00006b88       ??_C@_05LAPONLG@false?$AA@ 10031b88     private_server.obj
 0002:00006b94       ??_7tbb_server@rml@internal@tbb@@6B@ 10031b94     private_server.obj
 0002:00006bb8       ??_7server@rml@@6B@        10031bb8     private_server.obj
 0002:00006bd0       ??_7versioned_object@rml@@6B@ 10031bd0     private_server.obj
 0002:00006bd4       ??_C@_0CP@ECLIENFE@thread_monitor?3?3launch?3?5_beginth@ 10031bd4     private_server.obj
 0002:000075d4       ??_7captured_exception@tbb@@6B@ 100325d4     task_group_context.obj
 0002:000075f0       ??_7tbb_exception@tbb@@6B@ 100325f0     task_group_context.obj
 0002:00008928       ??_7market@internal@tbb@@6B@ 10033928     market.obj
 0002:0000894c       ??_7tbb_client@rml@internal@tbb@@6B@ 1003394c     market.obj
 0002:00008970       ??_7client@rml@@6B@        10033970     market.obj
 0002:0000898c       ??_C@_0CP@FLAKNIEB@d?3?2work?2project?2orca?2deps?2tbb?2sr@ 1003398c     market.obj
 0002:000089c0       ??_C@_0PC@JBKCGBCI@?$CImy_priority_levels?$FLmy_global_to@ 100339c0     market.obj
 0002:00008ab4       ??_C@_0DH@LOPDINLH@d?3?2work?2project?2orca?2deps?2tbb?2sr@ 10033ab4     market.obj
 0002:00008af0       ??_C@_0EN@LEICMHPL@node?$CIval?$CJ?4my_prev_node?5?$DN?$DN?5?$CGnode?$CI@ 10033af0     market.obj
 0002:00008b40       ??_C@_0FG@ECMKMFAA@Object?5with?5intrusive?5list?5node?5@ 10033b40     market.obj
 0002:00008b98       ??_C@_0GJ@MCBNLHDF@node?$CIval?$CJ?4my_prev_node?9?$DOmy_next_@ 10033b98     market.obj
 0002:00008c08       ??_C@_0EN@OJCEBKLC@node?$CIval?$CJ?4my_prev_node?5?$CB?$DN?5?$CGnode?$CI@ 10033c08     market.obj
 0002:00008c58       ??_C@_0CF@JJLIEOOD@Element?5to?5remove?5is?5not?5in?5the?5@ 10033c58     market.obj
 0002:00008c80       ??_C@_0GD@OJFKBGDC@?$CImy_head?4my_prev_node?5?$DN?$DN?5?$CGmy_hea@ 10033c80     market.obj
 0002:00008ce4       ??_C@_0BO@ECOGGHIB@intrusive_list_base?5corrupted?$AA@ 10033ce4     market.obj
 0002:0000986c       ??_C@_0DA@NIJGLOKF@d?3?2work?2project?2orca?2deps?2tbb?2sr@ 1003486c     arena.obj
 0002:0000989c       ??_C@_09OEPHKDIP@my_putter?$AA@ 1003489c     arena.obj
 0002:000098a8       ??_C@_0N@IIPOOJBI@not?5attached?$AA@ 100348a8     arena.obj
 0002:000098b8       ??_C@_0DC@BDHLIKJL@d?3?2work?2project?2orca?2deps?2tbb?2sr@ 100348b8     arena.obj
 0002:000098ec       ??_C@_04OIAIIDOD@id?$DO0?$AA@ 100348ec     arena.obj
 0002:000098f4       ??_C@_0L@CLOICKAC@?$CBmy_putter?$AA@ 100348f4     arena.obj
 0002:00009900       ??_C@_0BB@BPJHCKGA@already?5attached?$AA@ 10034900     arena.obj
 0002:00009914       ??_C@_0BD@OMMHHPPG@id?5?$DM?$DN?5my_num_slots?$AA@ 10034914     arena.obj
 0002:00009928       ??_C@_0BK@FLEGBGKI@affinity?5id?5out?5of?5bounds?$AA@ 10034928     arena.obj
 0002:00009944       ??_C@_0CO@INPEPCI@d?3?2work?2project?2orca?2deps?2tbb?2sr@ 10034944     arena.obj
 0002:00009974       ??_C@_04GEJGKJHB@0?$DMid?$AA@ 10034974     arena.obj
 0002:0000997c       ??_C@_0CF@KAJGPIBO@affinity?5id?5must?5be?5positive?5int@ 1003497c     arena.obj
 0002:000099a4       ??_C@_0M@LAFEDBPE@?$CBpopulation?$AA@ 100349a4     arena.obj
 0002:000099b0       ??_C@_0DE@DHMCFILM@d?3?2work?2project?2orca?2deps?2tbb?2sr@ 100349b0     arena.obj
 0002:000099e4       ??_C@_0CE@FLEGGINI@N?$DN?$DN32?5?$HM?$HM?5N?$DO?$DNn_lanes?5?$CG?$CG?5?$CI?$CIN?91?$CJ?$CGN?$CJ@ 100349e4     arena.obj
 0002:00009a08       ??_C@_0BO@CBFHELNN@number?5of?5lanes?5miscalculated?$AA@ 10034a08     arena.obj
 0002:00009a28       ??_C@_0M@KNJEEGAH@?$CBmy_is_idle?$AA@ 10034a28     arena.obj
 0002:00009a34       ??_C@_08IBAGIHNA@?$CBmy_last?$AA@ 10034a34     arena.obj
 0002:00009a40       ??_C@_09OBBJHBOG@?$CBmy_first?$AA@ 10034a40     arena.obj
 0002:00009a4c       ??_C@_0BP@MNEAKMKM@sizeof?$CI?$CKthis?$CJ?$DN?$DNNFS_MaxLineSize?$AA@ 10034a4c     arena.obj
 0002:00009a6c       ??_C@_0BN@GFOKEPOF@sizeof?$CIpopulation?$CJ?5?$CK?58?5?$DO?$DN?532?$AA@ 10034a6c     arena.obj
 0002:00009a8c       ??_C@_06LIILJPJL@pos?$DM32?$AA@ 10034a8c     arena.obj
 0002:00009a94       ??_C@_06CKCKBIJI@pos?$DO?$DN0?$AA@ 10034a94     arena.obj
 0002:00009a9c       ??_C@_1DC@POOIKBAO@?$AAI?$AAT?$AAE?$AAR?$AAA?$AAT?$AAO?$AAR?$AA?5?$AAL?$AAI?$AAS?$AAT?$AA?5?$AAC?$AAO?$AAR?$AAR?$AAU?$AAP?$AAT?$AAE?$AAD?$AA?$CB?$AA?$AA@ 10034a9c     arena.obj
 0002:00009ad0       ??_C@_1IE@KIEFBJKL@?$AAC?$AA?3?$AA?2?$AAP?$AAr?$AAo?$AAg?$AAr?$AAa?$AAm?$AA?5?$AAF?$AAi?$AAl?$AAe?$AAs?$AA?2?$AAM?$AAi?$AAc?$AAr?$AAo?$AAs?$AAo?$AAf?$AAt?$AA?5?$AAV?$AAi?$AAs?$AAu?$AAa@ 10034ad0     arena.obj
 0002:00009b54       ??_C@_0BH@HEDKOFCA@slot?4tail?5?$DN?$DN?5slot?4head?$AA@ 10034b54     arena.obj
 0002:00009b6c       ??_C@_0CO@GONKHPCO@Someone?5is?5tinkering?5with?5a?5vaca@ 10034b6c     arena.obj
 0002:00009b9c       ??_C@_0BI@GGGNAFM@?4?4?1?4?4?1src?1tbb?1arena?4cpp?$AA@ 10034b9c     arena.obj
 0002:00009bb4       ??_C@_0BO@HIAIGNJM@slot?4task_pool?5?$DN?$DN?5?$CI?$CItask?$CK?$CK?$CJ0?$CJ?$AA@ 10034bb4     arena.obj
 0002:00009bd4       ??_C@_1BO@MEPPHOO@?$AA?$CC?$AAo?$AAu?$AAt?$AA?5?$AAo?$AAf?$AA?5?$AAr?$AAa?$AAn?$AAg?$AAe?$AA?$CC?$AA?$AA@ 10034bd4     arena.obj
 0002:00009bf8       ??_C@_1MO@BDNNNGLN@?$AAs?$AAt?$AAd?$AA?3?$AA?3?$AA_?$AAD?$AAe?$AAq?$AAu?$AAe?$AA_?$AAc?$AAo?$AAn?$AAs?$AAt?$AA_?$AAi?$AAt?$AAe?$AAr?$AAa?$AAt?$AAo?$AAr?$AA?$DM?$AAc?$AAl?$AAa?$AAs?$AAs@ 10034bf8     arena.obj
 0002:00009cc8       ??_C@_1FG@IBPIFFN@?$AA?$CC?$AAS?$AAt?$AAa?$AAn?$AAd?$AAa?$AAr?$AAd?$AA?5?$AAC?$AA?$CL?$AA?$CL?$AA?5?$AAL?$AAi?$AAb?$AAr?$AAa?$AAr?$AAi?$AAe?$AAs?$AA?5?$AAO?$AAu?$AAt?$AA?5?$AAo?$AAf?$AA?5?$AAR@ 10034cc8     arena.obj
 0002:00009d20       ??_C@_0CE@OFMIGAMM@Standard?5C?$CL?$CL?5Libraries?5Out?5of?5Ra@ 10034d20     arena.obj
 0002:00009d48       ??_C@_1EE@INPCGGNP@?$AAd?$AAe?$AAq?$AAu?$AAe?$AA?5?$AAi?$AAt?$AAe?$AAr?$AAa?$AAt?$AAo?$AAr?$AA?5?$AAn?$AAo?$AAt?$AA?5?$AAd?$AAe?$AAr?$AAe?$AAf?$AAe?$AAr?$AAe?$AAn?$AAc?$AAa?$AAb?$AAl@ 10034d48     arena.obj
 0002:00009d90       ??_C@_1NA@ICLEEPFD@?$AAs?$AAt?$AAd?$AA?3?$AA?3?$AA_?$AAD?$AAe?$AAq?$AAu?$AAe?$AA_?$AAc?$AAo?$AAn?$AAs?$AAt?$AA_?$AAi?$AAt?$AAe?$AAr?$AAa?$AAt?$AAo?$AAr?$AA?$DM?$AAc?$AAl?$AAa?$AAs?$AAs@ 10034d90     arena.obj
 0002:00009e60       ??_C@_1EC@CEAHEOFL@?$AAd?$AAe?$AAq?$AAu?$AAe?$AA?5?$AAi?$AAt?$AAe?$AAr?$AAa?$AAt?$AAo?$AAr?$AA?5?$AAn?$AAo?$AAt?$AA?5?$AAi?$AAn?$AAc?$AAr?$AAe?$AAm?$AAe?$AAn?$AAt?$AAa?$AAb?$AAl?$AAe@ 10034e60     arena.obj
 0002:00009ea4       ??_C@_1CG@JNLFBNGN@?$AA?$CC?$AAi?$AAn?$AAv?$AAa?$AAl?$AAi?$AAd?$AA?5?$AAa?$AAr?$AAg?$AAu?$AAm?$AAe?$AAn?$AAt?$AA?$CC?$AA?$AA@ 10034ea4     arena.obj
 0002:00009ed0       ??_C@_1MI@LGJIEAJM@?$AAs?$AAt?$AAd?$AA?3?$AA?3?$AA_?$AAD?$AAe?$AAq?$AAu?$AAe?$AA_?$AAc?$AAo?$AAn?$AAs?$AAt?$AA_?$AAi?$AAt?$AAe?$AAr?$AAa?$AAt?$AAo?$AAr?$AA?$DM?$AAc?$AAl?$AAa?$AAs?$AAs@ 10034ed0     arena.obj
 0002:00009f98       ??_C@_1FO@GJIHNDLM@?$AA?$CC?$AAS?$AAt?$AAa?$AAn?$AAd?$AAa?$AAr?$AAd?$AA?5?$AAC?$AA?$CL?$AA?$CL?$AA?5?$AAL?$AAi?$AAb?$AAr?$AAa?$AAr?$AAi?$AAe?$AAs?$AA?5?$AAI?$AAn?$AAv?$AAa?$AAl?$AAi?$AAd?$AA?5@ 10034f98     arena.obj
 0002:00009ff8       ??_C@_0CI@FNPHFCCM@Standard?5C?$CL?$CL?5Libraries?5Invalid?5A@ 10034ff8     arena.obj
 0002:0000a020       ??_C@_1DK@CNDLFKCJ@?$AAd?$AAe?$AAq?$AAu?$AAe?$AA?5?$AAi?$AAt?$AAe?$AAr?$AAa?$AAt?$AAo?$AAr?$AAs?$AA?5?$AAi?$AAn?$AAc?$AAo?$AAm?$AAp?$AAa?$AAt?$AAi?$AAb?$AAl?$AAe?$AA?$AA@ 10035020     arena.obj
 0002:0000d6c2       ?itt_possible@DefaultSchedulerTraits@internal@tbb@@2_NB 100386c2     scheduler.obj
 0002:0000d6c3       ?has_slow_atomic@DefaultSchedulerTraits@internal@tbb@@2_NB 100386c3     scheduler.obj
 0002:0000d6c4       ?itt_possible@IntelSchedulerTraits@internal@tbb@@2_NB 100386c4     scheduler.obj
 0002:0000d6c5       ?has_slow_atomic@IntelSchedulerTraits@internal@tbb@@2_NB 100386c5     scheduler.obj
 0002:0000d6cc       ??_7scheduler@internal@tbb@@6B@ 100386cc     scheduler.obj
 0002:0000d6e4       ??_7generic_scheduler@internal@tbb@@6B@ 100386e4     scheduler.obj
 0002:0000d700       ??_C@_04CJIJKHMO@pool?$AA@ 10038700     scheduler.obj
 0002:0000d708       ??_C@_0BO@MBIGMJED@attempt?5to?5free?5NULL?5TaskPool?$AA@ 10038708     scheduler.obj
 0002:0000d728       ??_C@_0FG@DKKKIBO@my_arena_slot?5?$DN?$DN?5?$CGmy_dummy_slot?5@ 10038728     scheduler.obj
 0002:0000d780       ??_C@_0DP@GHBJMLBA@Task?5pool?5must?5be?5locked?5when?5ca@ 10038780     scheduler.obj
 0002:0000d7c0       ??_C@_0DD@IHALEKFF@my_arena_slot?9?$DOtask_pool?5?$DN?$DN?5?$CI?$CIta@ 100387c0     scheduler.obj
 0002:0000d7f4       ??_C@_0BO@BPAKPMEK@not?5really?5acquired?5task?5pool?$AA@ 100387f4     scheduler.obj
 0002:0000d814       ??_C@_0DO@LEKMOCBN@tp?5?$DN?$DN?5?$CI?$CItask?$CK?$CK?$CJ?$HO?$CIintptr_t?$CJ0?$CJ?5?$HM?$HM?5@ 10038814     scheduler.obj
 0002:0000d854       ??_C@_0BI@DDHEOPJ@slot?5ownership?5corrupt?$DP?$AA@ 10038854     scheduler.obj
 0002:0000d86c       ??_C@_0BM@BONJCBAF@?4?4?1?4?4?1src?1tbb?1scheduler?4cpp?$AA@ 1003886c     scheduler.obj
 0002:0000d888       ??_C@_0DF@OAKHJCHO@my_arena_slot?5?$DN?$DN?5my_arena?9?$DOmy_sl@ 10038888     scheduler.obj
 0002:0000d8c0       ??_C@_0BJ@EBNAOIPB@invalid?5arena?5slot?5index?$AA@ 100388c0     scheduler.obj
 0002:0000d8dc       ??_C@_0BJ@KAKOPABB@arena?5slot?5is?5not?5locked?$AA@ 100388dc     scheduler.obj
 0002:0000d8f8       ??_C@_0O@MBNNLPFM@my_arena_slot?$AA@ 100388f8     scheduler.obj
 0002:0000d908       ??_C@_0BE@OBDANAJJ@we?5are?5not?5in?5arena?$AA@ 10038908     scheduler.obj
 0002:0000d91c       ??_C@_0BO@GALLHFEH@new_tail?5?$DM?$DN?5my_task_pool_size?$AA@ 1003891c     scheduler.obj
 0002:0000d93c       ??_C@_0BP@DLJALJOC@task?5deque?5end?5was?5overwritten?$AA@ 1003893c     scheduler.obj
 0002:0000d95c       ??_C@_0CJ@OADHCJIC@dst_thread?5?$DN?$DN?50?5?$HM?$HM?5is_version_3_@ 1003895c     scheduler.obj
 0002:0000d988       ??_C@_0DD@DBDAGODG@backwards?5compatibility?5to?5TBB?52@ 10038988     scheduler.obj
 0002:0000d9bc       ??_C@_0N@GNAOLKKA@ref_count?$CB?$DN0?$AA@ 100389bc     scheduler.obj
 0002:0000d9d0       ??_C@_0FB@KLFGCIGA@attempt?5to?5spawn?5task?5whose?5pare@ 100389d0     scheduler.obj
 0002:0000da24       ??_C@_0N@GFHEPNGJ@ref_count?$DO?$DN0?$AA@ 10038a24     scheduler.obj
 0002:0000da34       ??_C@_0DF@OEIDPLN@attempt?5to?5spawn?5task?5whose?5pare@ 10038a34     scheduler.obj
 0002:0000da6c       ??_C@_0BM@PKOLENLD@t?9?$DOstate?$CI?$CJ?$DN?$DNtask?3?3allocated?$AA@ 10038a6c     scheduler.obj
 0002:0000da88       ??_C@_0DH@EOPIIHGK@attempt?5to?5spawn?5task?5that?5is?5no@ 10038a88     scheduler.obj
 0002:0000dac0       ??_C@_02HHCNKAEN@?$CGt?$AA@ 10038ac0     scheduler.obj
 0002:0000dac8       ??_7empty_task@tbb@@6B@    10038ac8     scheduler.obj
 0002:0000dad4       ??_C@_0CC@MFNMDHO@p?5?$DO?$DN?50?5?$CG?$CG?5p?5?$DM?5num_priority_level@ 10038ad4     scheduler.obj
 0002:0000daf8       ??_C@_0EH@OANICANA@my_offloaded_task_list_tail_link@ 10038af8     scheduler.obj
 0002:0000db40       ??_C@_0IK@MGPPBPLF@victim_task_pool?5?$DN?$DN?5?$CI?$CItask?$CK?$CK?$CJ0?$CJ?5@ 10038b40     scheduler.obj
 0002:0000dbcc       ??_C@_0CG@DLNDAJCB@not?5really?5locked?5victim?8s?5task?5@ 10038bcc     scheduler.obj
 0002:0000dbf4       ??_C@_0DH@EKDIAKJL@victim_arena_slot?9?$DOtask_pool?5?$DN?$DN?5@ 10038bf4     scheduler.obj
 0002:0000dc2c       ??_C@_0CA@PNKDECOB@victim?5arena?5slot?5is?5not?5locked?$AA@ 10038c2c     scheduler.obj
 0002:0000dc4c       ??_C@_0BC@FDIBDHCF@victim_arena_slot?$AA@ 10038c4c     scheduler.obj
 0002:0000dc60       ??_C@_0CA@KPJJIGGI@empty?5victim?5arena?5slot?5pointer?$AA@ 10038c60     scheduler.obj
 0002:0000dc80       ??_C@_05DAJAGAPA@H?5?$DM?5T?$AA@ 10038c80     scheduler.obj
 0002:0000dc88       ??_C@_0CG@GFMBLNBF@entering?5arena?5without?5tasks?5to?5@ 10038c88     scheduler.obj
 0002:0000dcb0       ??_C@_0CF@NPJCDDNF@is_quiescent_local_task_pool_emp@ 10038cb0     scheduler.obj
 0002:0000dcd8       ??_C@_0CI@MHCAHNEP@task?5deque?5of?5a?5free?5slot?5must?5b@ 10038cd8     scheduler.obj
 0002:0000dd00       ??_C@_0BP@GAMMILEG@is_local_task_pool_quiescent?$CI?$CJ?$AA@ 10038d00     scheduler.obj
 0002:0000dd20       ??_C@_0BL@ODPIFFEN@Task?5pool?5is?5not?5quiescent?$AA@ 10038d20     scheduler.obj
 0002:0000dd3c       ??_C@_09PDIAIGKC@my_server?$AA@ 10038d3c     scheduler.obj
 0002:0000dd48       ??_C@_0BI@CMOLMDHH@RML?5server?5not?5defined?$DP?$AA@ 10038d48     scheduler.obj
 0002:0000dd60       ??_C@_0DK@HBEBPIDG@d?3?2work?2project?2orca?2deps?2tbb?2sr@ 10038d60     scheduler.obj
 0002:0000dd9c       ??_C@_0CA@KCKFCMBB@initial_segment?5?$CG?$CG?5segment_size?$AA@ 10038d9c     scheduler.obj
 0002:0000ddbc       ??_C@_0CK@LELAGDPJ@Nonempty?5initial?5segment?5must?5be@ 10038dbc     scheduler.obj
 0002:0000dde8       ??_C@_0BO@MDAELBIO@m_num_segments?5?$DM?5max_segments?$AA@ 10038de8     scheduler.obj
 0002:0000de08       ??_C@_0BK@LFACAHON@Maximal?5capacity?5exceeded?$AA@ 10038e08     scheduler.obj
 0002:0000de28       ??_7?$custom_scheduler@UDefaultSchedulerTraits@internal@tbb@@@internal@tbb@@6B@ 10038e28     scheduler.obj
 0002:0000de48       ??_7?$custom_scheduler@UIntelSchedulerTraits@internal@tbb@@@internal@tbb@@6B@ 10038e48     scheduler.obj
 0002:0000de64       ??_C@_0BC@KBDMBKEH@deque?$DMT?$DO?5too?5long?$AA@ 10038e64     scheduler.obj
 0002:0000de78       ??_C@_0DB@PKNDPCDC@D?3?2work?2project?2orca?2deps?2tbb?2in@ 10038e78     scheduler.obj
 0002:0000deac       ??_C@_0BM@NOGDGACD@ref_count_?$DN?$DNint?$CIref_count_?$CJ?$AA@ 10038eac     scheduler.obj
 0002:0000dec8       ??_C@_0BH@CBDGOEGG@integer?5overflow?5error?$AA@ 10038ec8     scheduler.obj
 0002:0000dee0       ??_C@_0CP@PLNGIGGF@result?5?$HM?$HM?5is_quiescent_local_tas@ 10038ee0     scheduler.obj
 0002:0000df10       ??_C@_0BL@HBKJIEGL@is_version_3_task?$CI?$CKresult?$CJ?$AA@ 10038f10     scheduler.obj
 0002:0000df2c       ??_C@_0CM@FLLAMAOI@backwards?5compatibility?5with?5TBB@ 10038f2c     scheduler.obj
 0002:0000df58       ??_C@_0CF@LDHNFBMB@is_quiescent_local_task_pool_res@ 10038f58     scheduler.obj
 0002:0000df80       ??_C@_0GL@MJEMCFLK@H?5?$DN?$DN?5__TBB_load_relaxed?$CImy_arena@ 10038f80     scheduler.obj
 0002:0000dfec       ??_C@_0CL@JFLKFHKK@victim?1thief?5arbitration?5algorit@ 10038fec     scheduler.obj
 0002:0000e018       ??_C@_0BF@GMLCDCJN@?$CBis_poisoned?$CIresult?$CJ?$AA@ 10039018     scheduler.obj
 0002:0000e030       ??_C@_0L@DFCLHCPN@in_arena?$CI?$CJ?$AA@ 10039030     scheduler.obj
 0002:0000e03c       ??_C@_0BP@JDMDBFAC@my_putter?9?$DOmy_is_idle?5?$HM?$HM?5value?$AA@ 1003903c     scheduler.obj
 0002:0000e05c       ??_C@_0DA@EJPFNHBC@attempt?5to?5redundantly?5mark?5mail@ 1003905c     scheduler.obj
 0002:0000e08c       ??_C@_0BB@JOHMFCDC@my_affinity_id?$DO0?$AA@ 1003908c     scheduler.obj
 0002:0000e0a0       ??_C@_0N@NHAPNGAM@not?5in?5arena?$AA@ 100390a0     scheduler.obj
 0002:0000e0b0       ??_C@_0BI@CCILEFMP@?$CBfirst?9?$DOnext_in_mailbox?$AA@ 100390b0     scheduler.obj
 0002:0000e0c8       ??_C@_0BJ@NAOIKHFB@task_and_tag?5?$DN?$DN?5from_bit?$AA@ 100390c8     scheduler.obj
 0002:0000e0e4       ??_C@_0DB@IMPNEGJF@Empty?5proxy?5cannot?5contain?5non?9z@ 100390e4     scheduler.obj
 0002:0000e118       ??_C@_0DF@OJCBPOPH@tat?5?$DN?$DN?5from_bit?5?$HM?$HM?5?$CIis_shared?$CIta@ 10039118     scheduler.obj
 0002:0000e150       ??_C@_0GI@GIJCFNCK@Proxy?8s?5tag?5cannot?5specify?5both?5@ 10039150     scheduler.obj
 0002:0000e1b8       ??_C@_0CG@CFHFCKPM@prefix?$CI?$CJ?4extra_state?5?$DN?$DN?5es_task_@ 100391b8     scheduler.obj
 0002:0000e1e0       ??_C@_0CH@JEFMPKMI@Normal?5task?5misinterpreted?5as?5a?5@ 100391e0     scheduler.obj
 0002:0000e208       ??_C@_0DJ@CINIHEJ@d?3?2work?2project?2orca?2deps?2tbb?2sr@ 10039208     scheduler.obj
 0002:0000e244       ??_C@_0P@KPMFOABG@p?4ref_count?$DN?$DN0?$AA@ 10039244     scheduler.obj
 0002:0000e258       ??_C@_0EF@DFJMMIPF@completion?5of?5task?5caused?5predec@ 10039258     scheduler.obj
 0002:0000e2a0       ??_C@_1IA@FMGOINDO@?$AAC?$AA?3?$AA?2?$AAP?$AAr?$AAo?$AAg?$AAr?$AAa?$AAm?$AA?5?$AAF?$AAi?$AAl?$AAe?$AAs?$AA?2?$AAM?$AAi?$AAc?$AAr?$AAo?$AAs?$AAo?$AAf?$AAt?$AA?5?$AAV?$AAi?$AAs?$AAu?$AAa@ 100392a0     scheduler.obj
 0002:0000e320       ??_C@_1CK@EOPGIILJ@?$AAi?$AAn?$AAv?$AAa?$AAl?$AAi?$AAd?$AA?5?$AAn?$AAu?$AAl?$AAl?$AA?5?$AAp?$AAo?$AAi?$AAn?$AAt?$AAe?$AAr?$AA?$AA@ 10039320     scheduler.obj
 0002:0000e34c       ??_C@_1CO@DGLIKNHI@?$AAi?$AAn?$AAv?$AAa?$AAl?$AAi?$AAd?$AA?5?$AAi?$AAt?$AAe?$AAr?$AAa?$AAt?$AAo?$AAr?$AA?5?$AAr?$AAa?$AAn?$AAg?$AAe?$AA?$AA@ 1003934c     scheduler.obj
 0002:0000e5c4       ?alignment@?$work_around_alignment_bug@$03Vspin_rw_mutex_v3@tbb@@@internal@tbb@@2IB 100395c4     observer_proxy.obj
 0002:0000e5c8       ??_C@_0DK@HFAKIPFK@D?3?2work?2project?2orca?2deps?2tbb?2in@ 100395c8     observer_proxy.obj
 0002:0000e604       ??_C@_06MDKGKMGM@?$CBmutex?$AA@ 10039604     observer_proxy.obj
 0002:0000e60c       ??_C@_0BG@BEFAEEMA@holding?5mutex?5already?$AA@ 1003960c     observer_proxy.obj
 0002:0000e624       ??_C@_05IGMCOAJJ@mutex?$AA@ 10039624     observer_proxy.obj
 0002:0000e62c       ??_C@_0BF@MKDIKJIO@lock?5is?5not?5acquired?$AA@ 1003962c     observer_proxy.obj
 0002:0000e644       ??_C@_0CD@KLDPKFDL@Leaked?5?$CFld?5observer_proxy?5object@ 10039644     observer_proxy.obj
 0002:0000e804       ?lg_min_segment_size@concurrent_vector_base@internal@tbb@@1HB 10039804     concurrent_vector_v2.obj
 0002:0000e808       ?min_segment_size@concurrent_vector_base@internal@tbb@@1HB 10039808     concurrent_vector_v2.obj
 0002:0000ebe0       ??_C@_0DN@IPIBKKAE@d?3?2work?2project?2orca?2deps?2tbb?2sr@ 10039be0     concurrent_vector_v2.obj
 0002:0000ec20       ??_C@_0CK@MILFLHAC@result?$DN?$DNsegment_base?$CIk?$CL1?$CJ?9segmen@ 10039c20     concurrent_vector_v2.obj
 0002:0000ef7c       ??_7concurrent_queue_base@internal@tbb@@6B@ 10039f7c     concurrent_queue_v2.obj
 0002:0000ef88       ??_C@_0CG@CGFKONFE@?4?4?1?4?4?1src?1old?1concurrent_queue_v@ 10039f88     concurrent_queue_v2.obj
 0002:0000efb0       ?WRITER@spin_rw_mutex@tbb@@0IB 10039fb0     spin_rw_mutex_v2.obj
 0002:0000efb4       ?WRITER_PENDING@spin_rw_mutex@tbb@@0IB 10039fb4     spin_rw_mutex_v2.obj
 0002:0000efb8       ?READERS@spin_rw_mutex@tbb@@0IB 10039fb8     spin_rw_mutex_v2.obj
 0002:0000efbc       ?ONE_READER@spin_rw_mutex@tbb@@0IB 10039fbc     spin_rw_mutex_v2.obj
 0002:0000efc0       ?BUSY@spin_rw_mutex@tbb@@0IB 10039fc0     spin_rw_mutex_v2.obj
 0002:0000f558       ??_7type_info@@6B@         1003a558     MSVCRTD:ti_inst.obj
 0002:0000f55c       ?ProcessDetach@NativeDll@<CrtImplementationDetails>@@0IB 1003a55c     MSVCRTD:tncleanup.obj
 0002:0000f560       ?ProcessAttach@NativeDll@<CrtImplementationDetails>@@0IB 1003a560     MSVCRTD:tncleanup.obj
 0002:0000f564       ?ThreadAttach@NativeDll@<CrtImplementationDetails>@@0IB 1003a564     MSVCRTD:tncleanup.obj
 0002:0000f568       ?ThreadDetach@NativeDll@<CrtImplementationDetails>@@0IB 1003a568     MSVCRTD:tncleanup.obj
 0002:0000f56c       ?ProcessVerifier@NativeDll@<CrtImplementationDetails>@@0IB 1003a56c     MSVCRTD:tncleanup.obj
 0002:0000f570       __pRawDllMain              1003a570     MSVCRTD:crtdll.obj
 0002:0000f570       __pDefaultRawDllMain       1003a570     MSVCRTD:crtdll.obj
 0002:0000f574       ??_C@_0DA@FJPPCPEH@f?3?2dd?2vctools?2crt_bld?2self_x86?2c@ 1003a574     MSVCRTD:crtdll.obj
 0002:0000f614       ??_R4concurrent_queue_base_v3@internal@tbb@@6B@ 1003a614     concurrent_queue.obj
 0002:0000f628       ??_R3concurrent_queue_base_v3@internal@tbb@@8 1003a628     concurrent_queue.obj
 0002:0000f638       ??_R2concurrent_queue_base_v3@internal@tbb@@8 1003a638     concurrent_queue.obj
 0002:0000f648       ??_R1A@?0A@EA@concurrent_queue_base_v3@internal@tbb@@8 1003a648     concurrent_queue.obj
 0002:0000f664       ??_R13?0A@EN@no_copy@internal@tbb@@8 1003a664     concurrent_queue.obj
 0002:0000f680       ??_R3no_copy@internal@tbb@@8 1003a680     concurrent_queue.obj
 0002:0000f690       ??_R2no_copy@internal@tbb@@8 1003a690     concurrent_queue.obj
 0002:0000f69c       ??_R1A@?0A@EA@no_copy@internal@tbb@@8 1003a69c     concurrent_queue.obj
 0002:0000f6b8       ??_R1A@?0A@EN@no_assign@internal@tbb@@8 1003a6b8     concurrent_queue.obj
 0002:0000f6d4       ??_R3no_assign@internal@tbb@@8 1003a6d4     concurrent_queue.obj
 0002:0000f6e4       ??_R2no_assign@internal@tbb@@8 1003a6e4     concurrent_queue.obj
 0002:0000f6ec       ??_R1A@?0A@EA@no_assign@internal@tbb@@8 1003a6ec     concurrent_queue.obj
 0002:0000f708       ??_R13?0A@EN@no_assign@internal@tbb@@8 1003a708     concurrent_queue.obj
 0002:0000f724       ??_R4stage_task@internal@tbb@@6B@ 1003a724     pipeline.obj
 0002:0000f738       ??_R3stage_task@internal@tbb@@8 1003a738     pipeline.obj
 0002:0000f748       ??_R2stage_task@internal@tbb@@8 1003a748     pipeline.obj
 0002:0000f764       ??_R1A@?0A@EA@stage_task@internal@tbb@@8 1003a764     pipeline.obj
 0002:0000f780       ??_R1A@?0A@EA@task@tbb@@8  1003a780     pipeline.obj
 0002:0000f79c       ??_R3task@tbb@@8           1003a79c     pipeline.obj
 0002:0000f7ac       ??_R2task@tbb@@8           1003a7ac     pipeline.obj
 0002:0000f7c0       ??_R13?0A@EA@task_base@internal@interface5@tbb@@8 1003a7c0     pipeline.obj
 0002:0000f7dc       ??_R3task_base@internal@interface5@tbb@@8 1003a7dc     pipeline.obj
 0002:0000f7ec       ??_R2task_base@internal@interface5@tbb@@8 1003a7ec     pipeline.obj
 0002:0000f7fc       ??_R1A@?0A@EA@task_base@internal@interface5@tbb@@8 1003a7fc     pipeline.obj
 0002:0000f818       ??_R1A@?0A@EN@no_copy@internal@tbb@@8 1003a818     pipeline.obj
 0002:0000f834       ??_R13?0A@EA@task_info@internal@tbb@@8 1003a834     pipeline.obj
 0002:0000f850       ??_R3task_info@internal@tbb@@8 1003a850     pipeline.obj
 0002:0000f860       ??_R2task_info@internal@tbb@@8 1003a860     pipeline.obj
 0002:0000f868       ??_R1A@?0A@EA@task_info@internal@tbb@@8 1003a868     pipeline.obj
 0002:0000f884       ??_R4task@tbb@@6B@         1003a884     pipeline.obj
 0002:0000f898       ??_R4pipeline@tbb@@6B@     1003a898     pipeline.obj
 0002:0000f8ac       ??_R3pipeline@tbb@@8       1003a8ac     pipeline.obj
 0002:0000f8bc       ??_R2pipeline@tbb@@8       1003a8bc     pipeline.obj
 0002:0000f8c4       ??_R1A@?0A@EA@pipeline@tbb@@8 1003a8c4     pipeline.obj
 0002:0000f8e0       ??_R4pipeline_root_task@internal@tbb@@6B@ 1003a8e0     pipeline.obj
 0002:0000f8f4       ??_R3pipeline_root_task@internal@tbb@@8 1003a8f4     pipeline.obj
 0002:0000f904       ??_R2pipeline_root_task@internal@tbb@@8 1003a904     pipeline.obj
 0002:0000f91c       ??_R1A@?0A@EA@pipeline_root_task@internal@tbb@@8 1003a91c     pipeline.obj
 0002:0000f938       ??_R4filter@tbb@@6B@       1003a938     pipeline.obj
 0002:0000f94c       ??_R3filter@tbb@@8         1003a94c     pipeline.obj
 0002:0000f95c       ??_R2filter@tbb@@8         1003a95c     pipeline.obj
 0002:0000f96c       ??_R1A@?0A@EA@filter@tbb@@8 1003a96c     pipeline.obj
 0002:0000f988       ??_R4runtime_error@std@@6B@ 1003a988     tbb_misc.obj
 0002:0000f99c       ??_R3runtime_error@std@@8  1003a99c     tbb_misc.obj
 0002:0000f9ac       ??_R2runtime_error@std@@8  1003a9ac     tbb_misc.obj
 0002:0000f9b8       ??_R1A@?0A@EA@runtime_error@std@@8 1003a9b8     tbb_misc.obj
 0002:0000f9d4       ??_R1A@?0A@EA@exception@std@@8 1003a9d4     tbb_misc.obj
 0002:0000f9f0       ??_R3exception@std@@8      1003a9f0     tbb_misc.obj
 0002:0000fa00       ??_R2exception@std@@8      1003aa00     tbb_misc.obj
 0002:0000fa08       ??_R4bad_alloc@std@@6B@    1003aa08     tbb_misc.obj
 0002:0000fa1c       ??_R3bad_alloc@std@@8      1003aa1c     tbb_misc.obj
 0002:0000fa2c       ??_R2bad_alloc@std@@8      1003aa2c     tbb_misc.obj
 0002:0000fa38       ??_R1A@?0A@EA@bad_alloc@std@@8 1003aa38     tbb_misc.obj
 0002:0000fa54       ??_R4invalid_argument@std@@6B@ 1003aa54     tbb_misc.obj
 0002:0000fa68       ??_R3invalid_argument@std@@8 1003aa68     tbb_misc.obj
 0002:0000fa78       ??_R2invalid_argument@std@@8 1003aa78     tbb_misc.obj
 0002:0000fa88       ??_R1A@?0A@EA@invalid_argument@std@@8 1003aa88     tbb_misc.obj
 0002:0000faa4       ??_R1A@?0A@EA@logic_error@std@@8 1003aaa4     tbb_misc.obj
 0002:0000fac0       ??_R3logic_error@std@@8    1003aac0     tbb_misc.obj
 0002:0000fad0       ??_R2logic_error@std@@8    1003aad0     tbb_misc.obj
 0002:0000fadc       ??_R4logic_error@std@@6B@  1003aadc     tbb_misc.obj
 0002:0000faf0       ??_R4length_error@std@@6B@ 1003aaf0     tbb_misc.obj
 0002:0000fb04       ??_R3length_error@std@@8   1003ab04     tbb_misc.obj
 0002:0000fb14       ??_R2length_error@std@@8   1003ab14     tbb_misc.obj
 0002:0000fb24       ??_R1A@?0A@EA@length_error@std@@8 1003ab24     tbb_misc.obj
 0002:0000fb40       ??_R4out_of_range@std@@6B@ 1003ab40     tbb_misc.obj
 0002:0000fb54       ??_R3out_of_range@std@@8   1003ab54     tbb_misc.obj
 0002:0000fb64       ??_R2out_of_range@std@@8   1003ab64     tbb_misc.obj
 0002:0000fb74       ??_R1A@?0A@EA@out_of_range@std@@8 1003ab74     tbb_misc.obj
 0002:0000fb90       ??_R4range_error@std@@6B@  1003ab90     tbb_misc.obj
 0002:0000fba4       ??_R3range_error@std@@8    1003aba4     tbb_misc.obj
 0002:0000fbb4       ??_R2range_error@std@@8    1003abb4     tbb_misc.obj
 0002:0000fbc4       ??_R1A@?0A@EA@range_error@std@@8 1003abc4     tbb_misc.obj
 0002:0000fbe0       ??_R4bad_last_alloc@tbb@@6B@ 1003abe0     tbb_misc.obj
 0002:0000fbf4       ??_R3bad_last_alloc@tbb@@8 1003abf4     tbb_misc.obj
 0002:0000fc04       ??_R2bad_last_alloc@tbb@@8 1003ac04     tbb_misc.obj
 0002:0000fc14       ??_R1A@?0A@EA@bad_last_alloc@tbb@@8 1003ac14     tbb_misc.obj
 0002:0000fc30       ??_R4missing_wait@tbb@@6B@ 1003ac30     tbb_misc.obj
 0002:0000fc44       ??_R3missing_wait@tbb@@8   1003ac44     tbb_misc.obj
 0002:0000fc54       ??_R2missing_wait@tbb@@8   1003ac54     tbb_misc.obj
 0002:0000fc60       ??_R1A@?0A@EA@missing_wait@tbb@@8 1003ac60     tbb_misc.obj
 0002:0000fc7c       ??_R4invalid_multiple_scheduling@tbb@@6B@ 1003ac7c     tbb_misc.obj
 0002:0000fc90       ??_R3invalid_multiple_scheduling@tbb@@8 1003ac90     tbb_misc.obj
 0002:0000fca0       ??_R2invalid_multiple_scheduling@tbb@@8 1003aca0     tbb_misc.obj
 0002:0000fcac       ??_R1A@?0A@EA@invalid_multiple_scheduling@tbb@@8 1003acac     tbb_misc.obj
 0002:0000fcc8       ??_R4improper_lock@tbb@@6B@ 1003acc8     tbb_misc.obj
 0002:0000fcdc       ??_R3improper_lock@tbb@@8  1003acdc     tbb_misc.obj
 0002:0000fcec       ??_R2improper_lock@tbb@@8  1003acec     tbb_misc.obj
 0002:0000fcf8       ??_R1A@?0A@EA@improper_lock@tbb@@8 1003acf8     tbb_misc.obj
 0002:0000fd14       ??_R4user_abort@tbb@@6B@   1003ad14     tbb_misc.obj
 0002:0000fd28       ??_R3user_abort@tbb@@8     1003ad28     tbb_misc.obj
 0002:0000fd38       ??_R2user_abort@tbb@@8     1003ad38     tbb_misc.obj
 0002:0000fd44       ??_R1A@?0A@EA@user_abort@tbb@@8 1003ad44     tbb_misc.obj
 0002:0000fd60       ??_R4private_server@rml@internal@tbb@@6B@ 1003ad60     private_server.obj
 0002:0000fd74       ??_R3private_server@rml@internal@tbb@@8 1003ad74     private_server.obj
 0002:0000fd84       ??_R2private_server@rml@internal@tbb@@8 1003ad84     private_server.obj
 0002:0000fda0       ??_R1A@?0A@EA@private_server@rml@internal@tbb@@8 1003ada0     private_server.obj
 0002:0000fdbc       ??_R1A@?0A@EA@tbb_server@rml@internal@tbb@@8 1003adbc     private_server.obj
 0002:0000fdd8       ??_R3tbb_server@rml@internal@tbb@@8 1003add8     private_server.obj
 0002:0000fde8       ??_R2tbb_server@rml@internal@tbb@@8 1003ade8     private_server.obj
 0002:0000fdf8       ??_R1A@?0A@EA@server@rml@@8 1003adf8     private_server.obj
 0002:0000fe14       ??_R3server@rml@@8         1003ae14     private_server.obj
 0002:0000fe24       ??_R2server@rml@@8         1003ae24     private_server.obj
 0002:0000fe30       ??_R1A@?0A@EA@versioned_object@rml@@8 1003ae30     private_server.obj
 0002:0000fe4c       ??_R3versioned_object@rml@@8 1003ae4c     private_server.obj
 0002:0000fe5c       ??_R2versioned_object@rml@@8 1003ae5c     private_server.obj
 0002:0000fe64       ??_R4tbb_server@rml@internal@tbb@@6B@ 1003ae64     private_server.obj
 0002:0000fe78       ??_R4server@rml@@6B@       1003ae78     private_server.obj
 0002:0000fe8c       ??_R4versioned_object@rml@@6B@ 1003ae8c     private_server.obj
 0002:0000fea0       ??_R4captured_exception@tbb@@6B@ 1003aea0     task_group_context.obj
 0002:0000feb4       ??_R3captured_exception@tbb@@8 1003aeb4     task_group_context.obj
 0002:0000fec4       ??_R2captured_exception@tbb@@8 1003aec4     task_group_context.obj
 0002:0000fed4       ??_R1A@?0A@EA@captured_exception@tbb@@8 1003aed4     task_group_context.obj
 0002:0000fef0       ??_R1A@?0A@EA@tbb_exception@tbb@@8 1003aef0     task_group_context.obj
 0002:0000ff0c       ??_R3tbb_exception@tbb@@8  1003af0c     task_group_context.obj
 0002:0000ff1c       ??_R2tbb_exception@tbb@@8  1003af1c     task_group_context.obj
 0002:0000ff28       ??_R4tbb_exception@tbb@@6B@ 1003af28     task_group_context.obj
 0002:0000ff3c       ??_R4market@internal@tbb@@6B@ 1003af3c     market.obj
 0002:0000ff50       ??_R3market@internal@tbb@@8 1003af50     market.obj
 0002:0000ff60       ??_R2market@internal@tbb@@8 1003af60     market.obj
 0002:0000ff7c       ??_R1A@?0A@EA@market@internal@tbb@@8 1003af7c     market.obj
 0002:0000ff98       ??_R1A@?0A@EN@tbb_client@rml@internal@tbb@@8 1003af98     market.obj
 0002:0000ffb4       ??_R3tbb_client@rml@internal@tbb@@8 1003afb4     market.obj
 0002:0000ffc4       ??_R2tbb_client@rml@internal@tbb@@8 1003afc4     market.obj
 0002:0000ffd4       ??_R1A@?0A@EA@tbb_client@rml@internal@tbb@@8 1003afd4     market.obj
 0002:0000fff0       ??_R1A@?0A@EA@client@rml@@8 1003aff0     market.obj
 0002:0001000c       ??_R3client@rml@@8         1003b00c     market.obj
 0002:0001001c       ??_R2client@rml@@8         1003b01c     market.obj
 0002:00010028       ??_R1A@?0A@EJ@client@rml@@8 1003b028     market.obj
 0002:00010044       ??_R1A@?0A@EJ@versioned_object@rml@@8 1003b044     market.obj
 0002:00010060       ??_R4tbb_client@rml@internal@tbb@@6B@ 1003b060     market.obj
 0002:00010074       ??_R4client@rml@@6B@       1003b074     market.obj
 0002:00010088       ??_R4scheduler@internal@tbb@@6B@ 1003b088     scheduler.obj
 0002:0001009c       ??_R3scheduler@internal@tbb@@8 1003b09c     scheduler.obj
 0002:000100ac       ??_R2scheduler@internal@tbb@@8 1003b0ac     scheduler.obj
 0002:000100bc       ??_R1A@?0A@EA@scheduler@internal@tbb@@8 1003b0bc     scheduler.obj
 0002:000100d8       ??_R4generic_scheduler@internal@tbb@@6B@ 1003b0d8     scheduler.obj
 0002:000100ec       ??_R3generic_scheduler@internal@tbb@@8 1003b0ec     scheduler.obj
 0002:000100fc       ??_R2generic_scheduler@internal@tbb@@8 1003b0fc     scheduler.obj
 0002:00010114       ??_R1A@?0A@EA@generic_scheduler@internal@tbb@@8 1003b114     scheduler.obj
 0002:00010130       ??_R13?0A@EA@job@rml@@8    1003b130     scheduler.obj
 0002:0001014c       ??_R3job@rml@@8            1003b14c     scheduler.obj
 0002:0001015c       ??_R2job@rml@@8            1003b15c     scheduler.obj
 0002:00010164       ??_R1A@?0A@EA@job@rml@@8   1003b164     scheduler.obj
 0002:00010180       ??_R4empty_task@tbb@@6B@   1003b180     scheduler.obj
 0002:00010194       ??_R3empty_task@tbb@@8     1003b194     scheduler.obj
 0002:000101a4       ??_R2empty_task@tbb@@8     1003b1a4     scheduler.obj
 0002:000101bc       ??_R1A@?0A@EA@empty_task@tbb@@8 1003b1bc     scheduler.obj
 0002:000101d8       ??_R4?$custom_scheduler@UDefaultSchedulerTraits@internal@tbb@@@internal@tbb@@6B@ 1003b1d8     scheduler.obj
 0002:000101ec       ??_R3?$custom_scheduler@UDefaultSchedulerTraits@internal@tbb@@@internal@tbb@@8 1003b1ec     scheduler.obj
 0002:000101fc       ??_R2?$custom_scheduler@UDefaultSchedulerTraits@internal@tbb@@@internal@tbb@@8 1003b1fc     scheduler.obj
 0002:00010218       ??_R1A@?0A@EA@?$custom_scheduler@UDefaultSchedulerTraits@internal@tbb@@@internal@tbb@@8 1003b218     scheduler.obj
 0002:00010234       ??_R1A@?0A@EN@generic_scheduler@internal@tbb@@8 1003b234     scheduler.obj
 0002:00010250       ??_R1A@?0A@EJ@scheduler@internal@tbb@@8 1003b250     scheduler.obj
 0002:0001026c       ??_R13?0A@EJ@job@rml@@8    1003b26c     scheduler.obj
 0002:00010288       ??_R4?$custom_scheduler@UIntelSchedulerTraits@internal@tbb@@@internal@tbb@@6B@ 1003b288     scheduler.obj
 0002:0001029c       ??_R3?$custom_scheduler@UIntelSchedulerTraits@internal@tbb@@@internal@tbb@@8 1003b29c     scheduler.obj
 0002:000102ac       ??_R2?$custom_scheduler@UIntelSchedulerTraits@internal@tbb@@@internal@tbb@@8 1003b2ac     scheduler.obj
 0002:000102c8       ??_R1A@?0A@EA@?$custom_scheduler@UIntelSchedulerTraits@internal@tbb@@@internal@tbb@@8 1003b2c8     scheduler.obj
 0002:000102e4       ??_R4concurrent_queue_base@internal@tbb@@6B@ 1003b2e4     concurrent_queue_v2.obj
 0002:000102f8       ??_R3concurrent_queue_base@internal@tbb@@8 1003b2f8     concurrent_queue_v2.obj
 0002:00010308       ??_R2concurrent_queue_base@internal@tbb@@8 1003b308     concurrent_queue_v2.obj
 0002:00010318       ??_R1A@?0A@EA@concurrent_queue_base@internal@tbb@@8 1003b318     concurrent_queue_v2.obj
 0002:00010334       ??_R4type_info@@6B@        1003b334     MSVCRTD:ti_inst.obj
 0002:00010348       ??_R3type_info@@8          1003b348     MSVCRTD:ti_inst.obj
 0002:00010358       ??_R2type_info@@8          1003b358     MSVCRTD:ti_inst.obj
 0002:00010360       ??_R1A@?0A@EA@type_info@@8 1003b360     MSVCRTD:ti_inst.obj
 0002:0001037c       ___rtc_iaa                 1003b37c     MSVCRTD:_initsect_.obj
 0002:00010380       ___rtc_izz                 1003b380     MSVCRTD:_initsect_.obj
 0002:00010384       ___rtc_taa                 1003b384     MSVCRTD:_initsect_.obj
 0002:00010388       ___rtc_tzz                 1003b388     MSVCRTD:_initsect_.obj
 0002:00010c10       __TI2?AVruntime_error@std@@ 1003bc10     tbb_misc.obj
 0002:00010c20       __CTA2?AVruntime_error@std@@ 1003bc20     tbb_misc.obj
 0002:00010c2c       __CT??_R0?AVruntime_error@std@@@8??0runtime_error@std@@QAE@ABV01@@Z12 1003bc2c     tbb_misc.obj
 0002:00010c48       __CT??_R0?AVexception@std@@@8??0exception@std@@QAE@ABV01@@Z12 1003bc48     tbb_misc.obj
 0002:00010c64       __TI2?AVuser_abort@tbb@@   1003bc64     tbb_misc.obj
 0002:00010c74       __TI3?AVlength_error@std@@ 1003bc74     tbb_misc.obj
 0002:00010c84       __TI2?AVimproper_lock@tbb@@ 1003bc84     tbb_misc.obj
 0002:00010c94       __TI2?AVinvalid_multiple_scheduling@tbb@@ 1003bc94     tbb_misc.obj
 0002:00010ca4       __TI2?AVmissing_wait@tbb@@ 1003bca4     tbb_misc.obj
 0002:00010cb4       __TI3?AVrange_error@std@@  1003bcb4     tbb_misc.obj
 0002:00010cc4       __TI3?AVout_of_range@std@@ 1003bcc4     tbb_misc.obj
 0002:00010cd4       __TI3?AVinvalid_argument@std@@ 1003bcd4     tbb_misc.obj
 0002:00010ce4       __TI3?AVbad_last_alloc@tbb@@ 1003bce4     tbb_misc.obj
 0002:00010cf4       __TI2?AVbad_alloc@std@@    1003bcf4     tbb_misc.obj
 0002:00010d04       __CTA2?AVbad_alloc@std@@   1003bd04     tbb_misc.obj
 0002:00010d10       __CT??_R0?AVbad_alloc@std@@@8??0bad_alloc@std@@QAE@ABV01@@Z12 1003bd10     tbb_misc.obj
 0002:00010d2c       __CTA3?AVbad_last_alloc@tbb@@ 1003bd2c     tbb_misc.obj
 0002:00010d3c       __CT??_R0?AVbad_last_alloc@tbb@@@8??0bad_last_alloc@tbb@@QAE@ABV01@@Z12 1003bd3c     tbb_misc.obj
 0002:00010d58       __CTA3?AVinvalid_argument@std@@ 1003bd58     tbb_misc.obj
 0002:00010d68       __CT??_R0?AVinvalid_argument@std@@@8??0invalid_argument@std@@QAE@ABV01@@Z12 1003bd68     tbb_misc.obj
 0002:00010d84       __CT??_R0?AVlogic_error@std@@@8??0logic_error@std@@QAE@ABV01@@Z12 1003bd84     tbb_misc.obj
 0002:00010da0       __CTA3?AVout_of_range@std@@ 1003bda0     tbb_misc.obj
 0002:00010db0       __CT??_R0?AVout_of_range@std@@@8??0out_of_range@std@@QAE@ABV01@@Z12 1003bdb0     tbb_misc.obj
 0002:00010dcc       __CTA3?AVrange_error@std@@ 1003bdcc     tbb_misc.obj
 0002:00010ddc       __CT??_R0?AVrange_error@std@@@8??0range_error@std@@QAE@ABV01@@Z12 1003bddc     tbb_misc.obj
 0002:00010df8       __CTA2?AVmissing_wait@tbb@@ 1003bdf8     tbb_misc.obj
 0002:00010e04       __CT??_R0?AVmissing_wait@tbb@@@8??0missing_wait@tbb@@QAE@ABV01@@Z12 1003be04     tbb_misc.obj
 0002:00010e20       __CTA2?AVinvalid_multiple_scheduling@tbb@@ 1003be20     tbb_misc.obj
 0002:00010e2c       __CT??_R0?AVinvalid_multiple_scheduling@tbb@@@8??0invalid_multiple_scheduling@tbb@@QAE@ABV01@@Z12 1003be2c     tbb_misc.obj
 0002:00010e48       __CTA2?AVimproper_lock@tbb@@ 1003be48     tbb_misc.obj
 0002:00010e54       __CT??_R0?AVimproper_lock@tbb@@@8??0improper_lock@tbb@@QAE@ABV01@@Z12 1003be54     tbb_misc.obj
 0002:00010e70       __CTA3?AVlength_error@std@@ 1003be70     tbb_misc.obj
 0002:00010e80       __CT??_R0?AVlength_error@std@@@8??0length_error@std@@QAE@ABV01@@Z12 1003be80     tbb_misc.obj
 0002:00010e9c       __CTA2?AVuser_abort@tbb@@  1003be9c     tbb_misc.obj
 0002:00010ea8       __CT??_R0?AVuser_abort@tbb@@@8??0user_abort@tbb@@QAE@ABV01@@Z12 1003bea8     tbb_misc.obj
 0002:00011110       __TI3?AVcaptured_exception@tbb@@ 1003c110     task_group_context.obj
 0002:00011120       __CTA3?AVcaptured_exception@tbb@@ 1003c120     task_group_context.obj
 0002:00011130       __CT??_R0?AVcaptured_exception@tbb@@@8??0captured_exception@tbb@@QAE@ABV01@@Z24 1003c130     task_group_context.obj
 0002:0001114c       __CT??_R0?AVtbb_exception@tbb@@@8??0tbb_exception@tbb@@QAE@ABV01@@Z12 1003c14c     task_group_context.obj
 0002:00011dd4       __IMPORT_DESCRIPTOR_MSVCP100D 1003cdd4     msvcprtd:MSVCP100D.dll
 0002:00011de8       __IMPORT_DESCRIPTOR_MSVCR100D 1003cde8     MSVCRTD:MSVCR100D.dll
 0002:00011dfc       __IMPORT_DESCRIPTOR_KERNEL32 1003cdfc     kernel32:KERNEL32.dll
 0002:00011e10       __NULL_IMPORT_DESCRIPTOR   1003ce10     msvcprtd:MSVCP100D.dll
 0003:00000008       ??_R0?AVconcurrent_queue_base_v3@internal@tbb@@@8 10041008     concurrent_queue.obj
 0003:0000003c       ??_R0?AVno_copy@internal@tbb@@@8 1004103c     concurrent_queue.obj
 0003:00000060       ??_R0?AVno_assign@internal@tbb@@@8 10041060     concurrent_queue.obj
 0003:00000088       ??_R0?AVuser_abort@tbb@@@8 10041088     concurrent_queue.obj
 0003:000000b0       ___itt_sync_createA_ptr__3_0 100410b0     itt_notify.obj
 0003:000000b4       ___itt_sync_createW_ptr__3_0 100410b4     itt_notify.obj
 0003:000000b8       ___itt_sync_renameA_ptr__3_0 100410b8     itt_notify.obj
 0003:000000bc       ___itt_sync_renameW_ptr__3_0 100410bc     itt_notify.obj
 0003:000000c0       ___itt_sync_destroy_ptr__3_0 100410c0     itt_notify.obj
 0003:000000c4       ___itt_sync_prepare_ptr__3_0 100410c4     itt_notify.obj
 0003:000000c8       ___itt_sync_cancel_ptr__3_0 100410c8     itt_notify.obj
 0003:000000cc       ___itt_sync_acquired_ptr__3_0 100410cc     itt_notify.obj
 0003:000000d0       ___itt_sync_releasing_ptr__3_0 100410d0     itt_notify.obj
 0003:000000d4       ___itt_fsync_prepare_ptr__3_0 100410d4     itt_notify.obj
 0003:000000d8       ___itt_fsync_cancel_ptr__3_0 100410d8     itt_notify.obj
 0003:000000dc       ___itt_fsync_acquired_ptr__3_0 100410dc     itt_notify.obj
 0003:000000e0       ___itt_fsync_releasing_ptr__3_0 100410e0     itt_notify.obj
 0003:000000e4       ___itt_model_site_begin_ptr__3_0 100410e4     itt_notify.obj
 0003:000000e8       ___itt_model_site_end_ptr__3_0 100410e8     itt_notify.obj
 0003:000000ec       ___itt_model_task_begin_ptr__3_0 100410ec     itt_notify.obj
 0003:000000f0       ___itt_model_task_end_ptr__3_0 100410f0     itt_notify.obj
 0003:000000f4       ___itt_model_lock_acquire_ptr__3_0 100410f4     itt_notify.obj
 0003:000000f8       ___itt_model_lock_release_ptr__3_0 100410f8     itt_notify.obj
 0003:000000fc       ___itt_model_record_allocation_ptr__3_0 100410fc     itt_notify.obj
 0003:00000100       ___itt_model_record_deallocation_ptr__3_0 10041100     itt_notify.obj
 0003:00000104       ___itt_model_induction_uses_ptr__3_0 10041104     itt_notify.obj
 0003:00000108       ___itt_model_reduction_uses_ptr__3_0 10041108     itt_notify.obj
 0003:0000010c       ___itt_model_observe_uses_ptr__3_0 1004110c     itt_notify.obj
 0003:00000110       ___itt_model_clear_uses_ptr__3_0 10041110     itt_notify.obj
 0003:00000114       ___itt_model_disable_push_ptr__3_0 10041114     itt_notify.obj
 0003:00000118       ___itt_model_disable_pop_ptr__3_0 10041118     itt_notify.obj
 0003:0000011c       ___itt_model_site_beginW_ptr__3_0 1004111c     itt_notify.obj
 0003:00000120       ___itt_model_task_beginW_ptr__3_0 10041120     itt_notify.obj
 0003:00000124       ___itt_model_site_beginAL_ptr__3_0 10041124     itt_notify.obj
 0003:00000128       ___itt_model_task_beginAL_ptr__3_0 10041128     itt_notify.obj
 0003:0000012c       ___itt_heap_function_createA_ptr__3_0 1004112c     itt_notify.obj
 0003:00000130       ___itt_heap_function_createW_ptr__3_0 10041130     itt_notify.obj
 0003:00000134       ___itt_heap_allocate_begin_ptr__3_0 10041134     itt_notify.obj
 0003:00000138       ___itt_heap_allocate_end_ptr__3_0 10041138     itt_notify.obj
 0003:0000013c       ___itt_heap_free_begin_ptr__3_0 1004113c     itt_notify.obj
 0003:00000140       ___itt_heap_free_end_ptr__3_0 10041140     itt_notify.obj
 0003:00000144       ___itt_heap_reallocate_begin_ptr__3_0 10041144     itt_notify.obj
 0003:00000148       ___itt_heap_reallocate_end_ptr__3_0 10041148     itt_notify.obj
 0003:0000014c       ___itt_heap_internal_access_begin_ptr__3_0 1004114c     itt_notify.obj
 0003:00000150       ___itt_heap_internal_access_end_ptr__3_0 10041150     itt_notify.obj
 0003:00000154       ___itt_id_create_ptr__3_0  10041154     itt_notify.obj
 0003:00000158       ___itt_id_destroy_ptr__3_0 10041158     itt_notify.obj
 0003:0000015c       ___itt_region_begin_ptr__3_0 1004115c     itt_notify.obj
 0003:00000160       ___itt_region_end_ptr__3_0 10041160     itt_notify.obj
 0003:00000164       ___itt_frame_begin_v3_ptr__3_0 10041164     itt_notify.obj
 0003:00000168       ___itt_frame_end_v3_ptr__3_0 10041168     itt_notify.obj
 0003:0000016c       ___itt_task_group_ptr__3_0 1004116c     itt_notify.obj
 0003:00000170       ___itt_task_begin_ptr__3_0 10041170     itt_notify.obj
 0003:00000174       ___itt_task_begin_fn_ptr__3_0 10041174     itt_notify.obj
 0003:00000178       ___itt_task_end_ptr__3_0   10041178     itt_notify.obj
 0003:0000017c       ___itt_counter_inc_v3_ptr__3_0 1004117c     itt_notify.obj
 0003:00000180       ___itt_counter_inc_delta_v3_ptr__3_0 10041180     itt_notify.obj
 0003:00000184       ___itt_marker_ptr__3_0     10041184     itt_notify.obj
 0003:00000188       ___itt_metadata_add_ptr__3_0 10041188     itt_notify.obj
 0003:0000018c       ___itt_metadata_str_addA_ptr__3_0 1004118c     itt_notify.obj
 0003:00000190       ___itt_metadata_str_addW_ptr__3_0 10041190     itt_notify.obj
 0003:00000194       ___itt_relation_add_to_current_ptr__3_0 10041194     itt_notify.obj
 0003:00000198       ___itt_relation_add_ptr__3_0 10041198     itt_notify.obj
 0003:0000019c       ___itt_event_createA_ptr__3_0 1004119c     itt_notify.obj
 0003:000001a0       ___itt_event_createW_ptr__3_0 100411a0     itt_notify.obj
 0003:000001a4       ___itt_event_start_ptr__3_0 100411a4     itt_notify.obj
 0003:000001a8       ___itt_event_end_ptr__3_0  100411a8     itt_notify.obj
 0003:000001ac       ___itt_sync_set_nameA_ptr__3_0 100411ac     itt_notify.obj
 0003:000001b0       ___itt_sync_set_nameW_ptr__3_0 100411b0     itt_notify.obj
 0003:000001b4       ___itt_notify_sync_nameA_ptr__3_0 100411b4     itt_notify.obj
 0003:000001b8       ___itt_notify_sync_nameW_ptr__3_0 100411b8     itt_notify.obj
 0003:000001bc       ___itt_notify_sync_prepare_ptr__3_0 100411bc     itt_notify.obj
 0003:000001c0       ___itt_notify_sync_cancel_ptr__3_0 100411c0     itt_notify.obj
 0003:000001c4       ___itt_notify_sync_acquired_ptr__3_0 100411c4     itt_notify.obj
 0003:000001c8       ___itt_notify_sync_releasing_ptr__3_0 100411c8     itt_notify.obj
 0003:000001cc       ___itt_memory_read_ptr__3_0 100411cc     itt_notify.obj
 0003:000001d0       ___itt_memory_write_ptr__3_0 100411d0     itt_notify.obj
 0003:000001d4       ___itt_memory_update_ptr__3_0 100411d4     itt_notify.obj
 0003:000001d8       ___itt_state_get_ptr__3_0  100411d8     itt_notify.obj
 0003:000001dc       ___itt_state_set_ptr__3_0  100411dc     itt_notify.obj
 0003:000001e0       ___itt_obj_mode_set_ptr__3_0 100411e0     itt_notify.obj
 0003:000001e4       ___itt_thr_mode_set_ptr__3_0 100411e4     itt_notify.obj
 0003:000001e8       ___itt_frame_createA_ptr__3_0 100411e8     itt_notify.obj
 0003:000001ec       ___itt_frame_createW_ptr__3_0 100411ec     itt_notify.obj
 0003:000001f0       ___itt_frame_begin_ptr__3_0 100411f0     itt_notify.obj
 0003:000001f4       ___itt_frame_end_ptr__3_0  100411f4     itt_notify.obj
 0003:000001f8       ___itt_counter_createA_ptr__3_0 100411f8     itt_notify.obj
 0003:000001fc       ___itt_counter_createW_ptr__3_0 100411fc     itt_notify.obj
 0003:00000200       ___itt_counter_destroy_ptr__3_0 10041200     itt_notify.obj
 0003:00000204       ___itt_counter_inc_ptr__3_0 10041204     itt_notify.obj
 0003:00000208       ___itt_counter_inc_delta_ptr__3_0 10041208     itt_notify.obj
 0003:0000020c       ___itt_mark_createA_ptr__3_0 1004120c     itt_notify.obj
 0003:00000210       ___itt_mark_createW_ptr__3_0 10041210     itt_notify.obj
 0003:00000214       ___itt_markA_ptr__3_0      10041214     itt_notify.obj
 0003:00000218       ___itt_markW_ptr__3_0      10041218     itt_notify.obj
 0003:0000021c       ___itt_mark_off_ptr__3_0   1004121c     itt_notify.obj
 0003:00000220       ___itt_mark_globalA_ptr__3_0 10041220     itt_notify.obj
 0003:00000224       ___itt_mark_globalW_ptr__3_0 10041224     itt_notify.obj
 0003:00000228       ___itt_mark_global_off_ptr__3_0 10041228     itt_notify.obj
 0003:0000022c       ___itt_stack_caller_create_ptr__3_0 1004122c     itt_notify.obj
 0003:00000230       ___itt_stack_caller_destroy_ptr__3_0 10041230     itt_notify.obj
 0003:00000234       ___itt_stack_callee_enter_ptr__3_0 10041234     itt_notify.obj
 0003:00000238       ___itt_stack_callee_leave_ptr__3_0 10041238     itt_notify.obj
 0003:0000023c       ___itt_clock_domain_create_ptr__3_0 1004123c     itt_notify.obj
 0003:00000240       ___itt_clock_domain_reset_ptr__3_0 10041240     itt_notify.obj
 0003:00000244       ___itt_id_create_ex_ptr__3_0 10041244     itt_notify.obj
 0003:00000248       ___itt_id_destroy_ex_ptr__3_0 10041248     itt_notify.obj
 0003:0000024c       ___itt_task_begin_ex_ptr__3_0 1004124c     itt_notify.obj
 0003:00000250       ___itt_task_begin_fn_ex_ptr__3_0 10041250     itt_notify.obj
 0003:00000254       ___itt_task_end_ex_ptr__3_0 10041254     itt_notify.obj
 0003:00000258       ___itt_task_begin_overlapped_ptr__3_0 10041258     itt_notify.obj
 0003:0000025c       ___itt_task_begin_overlapped_ex_ptr__3_0 1004125c     itt_notify.obj
 0003:00000260       ___itt_task_end_overlapped_ptr__3_0 10041260     itt_notify.obj
 0003:00000264       ___itt_task_end_overlapped_ex_ptr__3_0 10041264     itt_notify.obj
 0003:00000268       ___itt_marker_ex_ptr__3_0  10041268     itt_notify.obj
 0003:0000026c       ___itt_metadata_add_with_scope_ptr__3_0 1004126c     itt_notify.obj
 0003:00000270       ___itt_metadata_str_add_with_scopeA_ptr__3_0 10041270     itt_notify.obj
 0003:00000274       ___itt_metadata_str_add_with_scopeW_ptr__3_0 10041274     itt_notify.obj
 0003:00000278       ___itt_relation_add_to_current_ex_ptr__3_0 10041278     itt_notify.obj
 0003:0000027c       ___itt_relation_add_ex_ptr__3_0 1004127c     itt_notify.obj
 0003:00000280       ___itt_track_group_create_ptr__3_0 10041280     itt_notify.obj
 0003:00000284       ___itt_track_create_ptr__3_0 10041284     itt_notify.obj
 0003:00000288       ___itt_set_track_ptr__3_0  10041288     itt_notify.obj
 0003:0000028c       ___itt_api_version_ptr__3_0 1004128c     itt_notify.obj
 0003:00000290       ___itt_domain_createA_ptr__3_0 10041290     itt_notify.obj
 0003:00000294       ___itt_domain_createW_ptr__3_0 10041294     itt_notify.obj
 0003:00000298       ___itt_string_handle_createA_ptr__3_0 10041298     itt_notify.obj
 0003:0000029c       ___itt_string_handle_createW_ptr__3_0 1004129c     itt_notify.obj
 0003:000002a0       ___itt_pause_ptr__3_0      100412a0     itt_notify.obj
 0003:000002a4       ___itt_resume_ptr__3_0     100412a4     itt_notify.obj
 0003:000002a8       ___itt_thread_set_nameA_ptr__3_0 100412a8     itt_notify.obj
 0003:000002ac       ___itt_thread_set_nameW_ptr__3_0 100412ac     itt_notify.obj
 0003:000002b0       ___itt_thread_ignore_ptr__3_0 100412b0     itt_notify.obj
 0003:000002b4       ___itt_thr_name_setA_ptr__3_0 100412b4     itt_notify.obj
 0003:000002b8       ___itt_thr_name_setW_ptr__3_0 100412b8     itt_notify.obj
 0003:000002bc       ___itt_thr_ignore_ptr__3_0 100412bc     itt_notify.obj
 0003:00000db4       ?SyncType_GlobalLock@tbb@@3PB_WB 10041db4     itt_notify.obj
 0003:00000db8       ?__itt_ittapi_global@@3U___itt_global@@A 10041db8     itt_notify.obj
 0003:00000e14       ?SyncType_Scheduler@tbb@@3PB_WB 10041e14     itt_notify.obj
 0003:00000e18       ?SyncObj_SchedulerInitialization@tbb@@3PB_WB 10041e18     itt_notify.obj
 0003:00000e1c       ?SyncObj_SchedulersList@tbb@@3PB_WB 10041e1c     itt_notify.obj
 0003:00000e20       ?SyncObj_WorkerLifeCycleMgmt@tbb@@3PB_WB 10041e20     itt_notify.obj
 0003:00000e24       ?SyncObj_TaskStealingLoop@tbb@@3PB_WB 10041e24     itt_notify.obj
 0003:00000e28       ?SyncObj_WorkerTaskPool@tbb@@3PB_WB 10041e28     itt_notify.obj
 0003:00000e2c       ?SyncObj_MasterTaskPool@tbb@@3PB_WB 10041e2c     itt_notify.obj
 0003:00000e30       ?SyncObj_TaskPoolSpinning@tbb@@3PB_WB 10041e30     itt_notify.obj
 0003:00000e34       ?SyncObj_Mailbox@tbb@@3PB_WB 10041e34     itt_notify.obj
 0003:00000e38       ?SyncObj_TaskReturnList@tbb@@3PB_WB 10041e38     itt_notify.obj
 0003:00000e3c       ?SyncObj_TaskStream@tbb@@3PB_WB 10041e3c     itt_notify.obj
 0003:00000e40       ?SyncObj_ContextsList@tbb@@3PB_WB 10041e40     itt_notify.obj
 0003:00000e60       ??_R0?AVstage_task@internal@tbb@@@8 10041e60     pipeline.obj
 0003:00000e88       ??_R0?AVtask@tbb@@@8       10041e88     pipeline.obj
 0003:00000ea0       ??_R0?AVtask_base@internal@interface5@tbb@@@8 10041ea0     pipeline.obj
 0003:00000ed0       ??_R0?AUtask_info@internal@tbb@@@8 10041ed0     pipeline.obj
 0003:00000ef8       ??_R0?AVpipeline@tbb@@@8   10041ef8     pipeline.obj
 0003:00000f14       ??_R0?AVpipeline_root_task@internal@tbb@@@8 10041f14     pipeline.obj
 0003:00000f44       ??_R0?AVfilter@tbb@@@8     10041f44     pipeline.obj
 0003:00000f60       ??_R0?AVruntime_error@std@@@8 10041f60     tbb_misc.obj
 0003:00000f80       ??_R0?AVexception@std@@@8  10041f80     tbb_misc.obj
 0003:00000f9c       ??_R0?AVbad_alloc@std@@@8  10041f9c     tbb_misc.obj
 0003:00000fb8       ??_R0?AVbad_last_alloc@tbb@@@8 10041fb8     tbb_misc.obj
 0003:00000fdc       ??_R0?AVinvalid_argument@std@@@8 10041fdc     tbb_misc.obj
 0003:00001000       ??_R0?AVlogic_error@std@@@8 10042000     tbb_misc.obj
 0003:00001020       ??_R0?AVout_of_range@std@@@8 10042020     tbb_misc.obj
 0003:00001040       ??_R0?AVrange_error@std@@@8 10042040     tbb_misc.obj
 0003:00001060       ??_R0?AVmissing_wait@tbb@@@8 10042060     tbb_misc.obj
 0003:00001080       ??_R0?AVinvalid_multiple_scheduling@tbb@@@8 10042080     tbb_misc.obj
 0003:000010b0       ??_R0?AVimproper_lock@tbb@@@8 100420b0     tbb_misc.obj
 0003:000010d0       ??_R0?AVlength_error@std@@@8 100420d0     tbb_misc.obj
 0003:000010f0       ?NumGroups@ProcessorGroupInfo@internal@tbb@@2HA 100420f0     tbb_misc_ex.obj
 0003:0000111c       ??_R0?AVprivate_server@rml@internal@tbb@@@8 1004211c     private_server.obj
 0003:0000114c       ??_R0?AVtbb_server@rml@internal@tbb@@@8 1004214c     private_server.obj
 0003:00001178       ??_R0?AVserver@rml@@@8     10042178     private_server.obj
 0003:00001194       ??_R0?AVversioned_object@rml@@@8 10042194     private_server.obj
 0003:000011b8       ??_R0?AVcaptured_exception@tbb@@@8 100421b8     task_group_context.obj
 0003:000011e0       ??_R0?AVtbb_exception@tbb@@@8 100421e0     task_group_context.obj
 0003:00001200       ??_R0?AVmarket@internal@tbb@@@8 10042200     market.obj
 0003:00001224       ??_R0?AVtbb_client@rml@internal@tbb@@@8 10042224     market.obj
 0003:00001250       ??_R0?AVclient@rml@@@8     10042250     market.obj
 0003:0000126c       ??_R0?AVscheduler@internal@tbb@@@8 1004226c     scheduler.obj
 0003:00001294       ??_R0?AVgeneric_scheduler@internal@tbb@@@8 10042294     scheduler.obj
 0003:000012c4       ??_R0?AVjob@rml@@@8        100422c4     scheduler.obj
 0003:000012dc       ??_R0?AVempty_task@tbb@@@8 100422dc     scheduler.obj
 0003:00001300       ??_R0?AV?$custom_scheduler@UDefaultSchedulerTraits@internal@tbb@@@internal@tbb@@@8 10042300     scheduler.obj
 0003:00001358       ??_R0?AV?$custom_scheduler@UIntelSchedulerTraits@internal@tbb@@@internal@tbb@@@8 10042358     scheduler.obj
 0003:000013ac       ??_R0?AVconcurrent_queue_base@internal@tbb@@@8 100423ac     concurrent_queue_v2.obj
 0003:000013e0       ___security_cookie         100423e0     MSVCRTD:gs_cookie.obj
 0003:000013e4       ___security_cookie_complement 100423e4     MSVCRTD:gs_cookie.obj
 0003:000013e8       ??_R0?AVtype_info@@@8      100423e8     MSVCRTD:ti_inst.obj
 0003:00001400       ___native_dllmain_reason   10042400     MSVCRTD:natstart.obj
 0003:00001404       ___native_vcclrit_reason   10042404     MSVCRTD:natstart.obj
 0003:00001410       ?handles@internal@tbb@@3Vhandle_storage@12@A 10042410     dynamic_link.obj
 0003:000034a8       ?theProcessorGroups@internal@tbb@@3PAUProcessorGroupInfo@12@A 100444a8     tbb_misc_ex.obj
 0003:000037ac       ?HoleIndex@ProcessorGroupInfo@internal@tbb@@2HA 100447ac     tbb_misc_ex.obj
 0003:000037e0       ?the_context_state_propagation_epoch@internal@tbb@@3IA 100447e0     scheduler.obj
 0003:000037e8       ?the_context_state_propagation_mutex@internal@tbb@@3Vspin_mutex@2@A 100447e8     scheduler.obj
 0003:000038f4       ?global_last_observer_proxy@internal@tbb@@3PAVobserver_proxy@12@A 100448f4     observer_proxy.obj
 0003:00003908       ?theRMLServerFactory@governor@internal@tbb@@0Vtbb_factory@rml@23@A 10044908     tbb_main.obj
 0003:0000391c       ?DefaultNumberOfThreads@governor@internal@tbb@@0IA 1004491c     tbb_main.obj
 0003:00003920       ?theTLS@governor@internal@tbb@@0V?$basic_tls@PAVgeneric_scheduler@internal@tbb@@@23@A 10044920     tbb_main.obj
 0003:00003924       ?UsePrivateRML@governor@internal@tbb@@0_NA 10044924     tbb_main.obj
 0003:00003927       ?InitializationLock@__TBB_InitOnce@internal@tbb@@0EA 10044927     tbb_main.obj
 0003:00003928       ?theMarket@market@internal@tbb@@0PAV123@A 10044928     tbb_main.obj
 0003:0000392c       ?count@__TBB_InitOnce@internal@tbb@@0U?$atomic@H@3@A 1004492c     tbb_main.obj
 0003:00003930       ?AllocateSchedulerPtr@internal@tbb@@3P6APAVgeneric_scheduler@12@PAVarena@12@I@ZA 10044930     tbb_main.obj
 0003:00003934       ?InitializationDone@__TBB_InitOnce@internal@tbb@@0_NA 10044934     tbb_main.obj
 0003:00003935       ?theMarketMutex@market@internal@tbb@@0Vspin_mutex@3@A 10044935     tbb_main.obj
 0003:0000393c       ?__type_info_root_node@@3U__type_info_node@@A 1004493c     MSVCRTD:tncleanup.obj
 0003:00003c6c       ___native_startup_state    10044c6c     <common>
 0003:00003c70       ___native_startup_lock     10044c70     <common>
 0003:00003c74       ___dyn_tls_init_callback   10044c74     <common>
 0003:00003c78       ___onexitend               10044c78     <common>
 0003:00003c7c       ___onexitbegin             10044c7c     <common>

 entry point at        0001:00027820

 Static symbols

 0001:fffff000       __unwindfunclet$?_Orphan_off@?$deque@PAVtask@tbb@@V?$tbb_allocator@PAVtask@tbb@@@2@@std@@IBEXI@Z$0 10000000 f   tbb_thread.obj
 0001:fffff000       __unwindfunclet$??1_Iterator_base12@std@@QAE@XZ$0 10000000 f   scheduler.obj
 0001:fffff000       __unwindfunclet$??1?$_Deque_val@PAVtask@tbb@@V?$tbb_allocator@PAVtask@tbb@@@2@@std@@QAE@XZ$0 10000000 f   arena.obj
 0001:fffff000       __unwindfunclet$??1?$deque@PAVtask@tbb@@V?$tbb_allocator@PAVtask@tbb@@@2@@std@@QAE@XZ$0 10000000 f   market.obj
 0001:fffff000       __unwindfunclet$??1?$_Deque_val@PAVtask@tbb@@V?$tbb_allocator@PAVtask@tbb@@@2@@std@@QAE@XZ$0 10000000 f   tbb_thread.obj
 0001:fffff000       __unwindfunclet$?_Orphan_off@?$deque@PAVtask@tbb@@V?$tbb_allocator@PAVtask@tbb@@@2@@std@@IBEXI@Z$0 10000000 f   market.obj
 0001:fffff000       __unwindfunclet$??1?$_Deque_val@PAVtask@tbb@@V?$tbb_allocator@PAVtask@tbb@@@2@@std@@QAE@XZ$0 10000000 f   market.obj
 0001:fffff000       __unwindfunclet$??1?$_Deque_val@PAVtask@tbb@@V?$tbb_allocator@PAVtask@tbb@@@2@@std@@QAE@XZ$0 10000000 f   scheduler.obj
 0001:fffff000       __unwindfunclet$??1?$deque@PAVtask@tbb@@V?$tbb_allocator@PAVtask@tbb@@@2@@std@@QAE@XZ$0 10000000 f   governor.obj
 0001:fffff000       __unwindfunclet$?_Orphan_off@?$deque@PAVtask@tbb@@V?$tbb_allocator@PAVtask@tbb@@@2@@std@@IBEXI@Z$0 10000000 f   scheduler.obj
 0001:fffff000       __unwindfunclet$?_Orphan_off@?$deque@PAVtask@tbb@@V?$tbb_allocator@PAVtask@tbb@@@2@@std@@IBEXI@Z$0 10000000 f   governor.obj
 0001:fffff000       __unwindfunclet$??1?$deque@PAVtask@tbb@@V?$tbb_allocator@PAVtask@tbb@@@2@@std@@QAE@XZ$0 10000000 f   scheduler.obj
 0001:fffff000       __unwindfunclet$??1?$_Deque_val@PAVtask@tbb@@V?$tbb_allocator@PAVtask@tbb@@@2@@std@@QAE@XZ$0 10000000 f   private_server.obj
 0001:fffff000       __unwindfunclet$??0?$_Deque_const_iterator@PAVtask@tbb@@V?$tbb_allocator@PAVtask@tbb@@@2@@std@@QAE@IPBU_Container_base12@1@@Z$0 10000000 f   scheduler.obj
 0001:fffff000       __unwindfunclet$??1?$_Deque_val@PAVtask@tbb@@V?$tbb_allocator@PAVtask@tbb@@@2@@std@@QAE@XZ$0 10000000 f   governor.obj
 0001:fffff000       __unwindfunclet$??1?$_Deque_val@PAVtask@tbb@@V?$tbb_allocator@PAVtask@tbb@@@2@@std@@QAE@XZ$0 10000000 f   observer_proxy.obj
 0001:fffff000       __unwindfunclet$?_Orphan_off@?$deque@PAVtask@tbb@@V?$tbb_allocator@PAVtask@tbb@@@2@@std@@IBEXI@Z$0 10000000 f   private_server.obj
 0001:fffff000       __unwindfunclet$?_Orphan_off@?$deque@PAVtask@tbb@@V?$tbb_allocator@PAVtask@tbb@@@2@@std@@IBEXI@Z$0 10000000 f   observer_proxy.obj
 0001:fffff000       __unwindfunclet$??1?$deque@PAVtask@tbb@@V?$tbb_allocator@PAVtask@tbb@@@2@@std@@QAE@XZ$0 10000000 f   private_server.obj
 0001:fffff000       __unwindfunclet$??1?$deque@PAVtask@tbb@@V?$tbb_allocator@PAVtask@tbb@@@2@@std@@QAE@XZ$0 10000000 f   observer_proxy.obj
 0001:fffff000       __unwindfunclet$??1?$_Deque_val@PAVtask@tbb@@V?$tbb_allocator@PAVtask@tbb@@@2@@std@@QAE@XZ$0 10000000 f   task_group_context.obj
 0001:fffff000       __unwindfunclet$?_Orphan_off@?$deque@PAVtask@tbb@@V?$tbb_allocator@PAVtask@tbb@@@2@@std@@IBEXI@Z$0 10000000 f   arena.obj
 0001:fffff000       __unwindfunclet$?_Orphan_off@?$deque@PAVtask@tbb@@V?$tbb_allocator@PAVtask@tbb@@@2@@std@@IBEXI@Z$0 10000000 f   task_group_context.obj
 0001:fffff000       __unwindfunclet$??1?$deque@PAVtask@tbb@@V?$tbb_allocator@PAVtask@tbb@@@2@@std@@QAE@XZ$0 10000000 f   tbb_main.obj
 0001:fffff000       __unwindfunclet$??1?$deque@PAVtask@tbb@@V?$tbb_allocator@PAVtask@tbb@@@2@@std@@QAE@XZ$0 10000000 f   arena.obj
 0001:fffff000       __unwindfunclet$?_Orphan_off@?$deque@PAVtask@tbb@@V?$tbb_allocator@PAVtask@tbb@@@2@@std@@IBEXI@Z$0 10000000 f   tbb_main.obj
 0001:fffff000       __unwindfunclet$??1?$deque@PAVtask@tbb@@V?$tbb_allocator@PAVtask@tbb@@@2@@std@@QAE@XZ$0 10000000 f   task_group_context.obj
 0001:fffff000       __unwindfunclet$??1?$_Deque_val@PAVtask@tbb@@V?$tbb_allocator@PAVtask@tbb@@@2@@std@@QAE@XZ$0 10000000 f   tbb_main.obj
 0001:fffff000       __unwindfunclet$?lock@spin_mutex@tbb@@QAEXXZ$0 10000000 f   arena.obj
 0001:fffff000       __unwindfunclet$??1?$deque@PAVtask@tbb@@V?$tbb_allocator@PAVtask@tbb@@@2@@std@@QAE@XZ$0 10000000 f   tbb_thread.obj
 0001:fffff000       __unwindfunclet$?_Adopt@_Iterator_base12@std@@QAEXPBU_Container_base12@2@@Z$0 10000000 f   scheduler.obj
 0001:fffff000       __unwindfunclet$?lock@spin_mutex@tbb@@QAEXXZ$0 10000000 f   market.obj
 0001:fffff008       __ehhandler$??1?$deque@PAVtask@tbb@@V?$tbb_allocator@PAVtask@tbb@@@2@@std@@QAE@XZ 10000008 f   tbb_thread.obj
 0001:fffff008       __ehhandler$??1?$deque@PAVtask@tbb@@V?$tbb_allocator@PAVtask@tbb@@@2@@std@@QAE@XZ 10000008 f   task_group_context.obj
 0001:fffff008       __ehhandler$??1?$deque@PAVtask@tbb@@V?$tbb_allocator@PAVtask@tbb@@@2@@std@@QAE@XZ 10000008 f   governor.obj
 0001:fffff008       __ehhandler$??1?$deque@PAVtask@tbb@@V?$tbb_allocator@PAVtask@tbb@@@2@@std@@QAE@XZ 10000008 f   scheduler.obj
 0001:fffff008       __ehhandler$??1?$deque@PAVtask@tbb@@V?$tbb_allocator@PAVtask@tbb@@@2@@std@@QAE@XZ 10000008 f   tbb_main.obj
 0001:fffff008       __ehhandler$??1?$deque@PAVtask@tbb@@V?$tbb_allocator@PAVtask@tbb@@@2@@std@@QAE@XZ 10000008 f   arena.obj
 0001:fffff008       __ehhandler$??0?$_Deque_const_iterator@PAVtask@tbb@@V?$tbb_allocator@PAVtask@tbb@@@2@@std@@QAE@IPBU_Container_base12@1@@Z 10000008 f   scheduler.obj
 0001:fffff008       __ehhandler$??1?$deque@PAVtask@tbb@@V?$tbb_allocator@PAVtask@tbb@@@2@@std@@QAE@XZ 10000008 f   market.obj
 0001:fffff008       __ehhandler$??1?$deque@PAVtask@tbb@@V?$tbb_allocator@PAVtask@tbb@@@2@@std@@QAE@XZ 10000008 f   observer_proxy.obj
 0001:fffff008       __ehhandler$??1?$deque@PAVtask@tbb@@V?$tbb_allocator@PAVtask@tbb@@@2@@std@@QAE@XZ 10000008 f   private_server.obj
 0001:fffff009       __ehhandler$?_Orphan_off@?$deque@PAVtask@tbb@@V?$tbb_allocator@PAVtask@tbb@@@2@@std@@IBEXI@Z 10000009 f   observer_proxy.obj
 0001:fffff009       __ehhandler$?_Orphan_off@?$deque@PAVtask@tbb@@V?$tbb_allocator@PAVtask@tbb@@@2@@std@@IBEXI@Z 10000009 f   private_server.obj
 0001:fffff009       __ehhandler$??1?$_Deque_val@PAVtask@tbb@@V?$tbb_allocator@PAVtask@tbb@@@2@@std@@QAE@XZ 10000009 f   task_group_context.obj
 0001:fffff009       __ehhandler$??1?$_Deque_val@PAVtask@tbb@@V?$tbb_allocator@PAVtask@tbb@@@2@@std@@QAE@XZ 10000009 f   governor.obj
 0001:fffff009       __ehhandler$?_Orphan_off@?$deque@PAVtask@tbb@@V?$tbb_allocator@PAVtask@tbb@@@2@@std@@IBEXI@Z 10000009 f   task_group_context.obj
 0001:fffff009       __ehhandler$?_Orphan_off@?$deque@PAVtask@tbb@@V?$tbb_allocator@PAVtask@tbb@@@2@@std@@IBEXI@Z 10000009 f   arena.obj
 0001:fffff009       __ehhandler$?_Orphan_off@?$deque@PAVtask@tbb@@V?$tbb_allocator@PAVtask@tbb@@@2@@std@@IBEXI@Z 10000009 f   governor.obj
 0001:fffff009       __ehhandler$?_Orphan_off@?$deque@PAVtask@tbb@@V?$tbb_allocator@PAVtask@tbb@@@2@@std@@IBEXI@Z 10000009 f   tbb_main.obj
 0001:fffff009       __ehhandler$??1?$_Deque_val@PAVtask@tbb@@V?$tbb_allocator@PAVtask@tbb@@@2@@std@@QAE@XZ 10000009 f   tbb_main.obj
 0001:fffff009       __ehhandler$?_Orphan_off@?$deque@PAVtask@tbb@@V?$tbb_allocator@PAVtask@tbb@@@2@@std@@IBEXI@Z 10000009 f   scheduler.obj
 0001:fffff009       __ehhandler$??1?$_Deque_val@PAVtask@tbb@@V?$tbb_allocator@PAVtask@tbb@@@2@@std@@QAE@XZ 10000009 f   market.obj
 0001:fffff009       __ehhandler$??1?$_Deque_val@PAVtask@tbb@@V?$tbb_allocator@PAVtask@tbb@@@2@@std@@QAE@XZ 10000009 f   scheduler.obj
 0001:fffff009       __ehhandler$?_Orphan_off@?$deque@PAVtask@tbb@@V?$tbb_allocator@PAVtask@tbb@@@2@@std@@IBEXI@Z 10000009 f   market.obj
 0001:fffff009       __ehhandler$??1?$_Deque_val@PAVtask@tbb@@V?$tbb_allocator@PAVtask@tbb@@@2@@std@@QAE@XZ 10000009 f   tbb_thread.obj
 0001:fffff009       __ehhandler$??1?$_Deque_val@PAVtask@tbb@@V?$tbb_allocator@PAVtask@tbb@@@2@@std@@QAE@XZ 10000009 f   observer_proxy.obj
 0001:fffff009       __ehhandler$?_Orphan_off@?$deque@PAVtask@tbb@@V?$tbb_allocator@PAVtask@tbb@@@2@@std@@IBEXI@Z 10000009 f   tbb_thread.obj
 0001:fffff009       __ehhandler$??1_Iterator_base12@std@@QAE@XZ 10000009 f   scheduler.obj
 0001:fffff009       __ehhandler$?_Adopt@_Iterator_base12@std@@QAEXPBU_Container_base12@2@@Z 10000009 f   scheduler.obj
 0001:fffff009       __ehhandler$??1?$_Deque_val@PAVtask@tbb@@V?$tbb_allocator@PAVtask@tbb@@@2@@std@@QAE@XZ 10000009 f   arena.obj
 0001:fffff009       __ehhandler$??1?$_Deque_val@PAVtask@tbb@@V?$tbb_allocator@PAVtask@tbb@@@2@@std@@QAE@XZ 10000009 f   private_server.obj
 0001:fffff011       __ehhandler$?lock@spin_mutex@tbb@@QAEXXZ 10000011 f   market.obj
 0001:fffff011       __ehhandler$?lock@spin_mutex@tbb@@QAEXXZ 10000011 f   arena.obj
 0001:00000144       __catch$?push@micro_queue@internal@tbb@@QAEXPBXIAAVconcurrent_queue_base_v3@23@@Z$0 10001144 f   concurrent_queue.obj
 0001:00000292       __catch$?push@micro_queue@internal@tbb@@QAEXPBXIAAVconcurrent_queue_base_v3@23@@Z$2 10001292 f   concurrent_queue.obj
 0001:00000330       ?__TBB_machine_pause@@YAXH@Z 10001330 f   concurrent_queue.obj
 0001:00000737       __catch$?assign@micro_queue@internal@tbb@@QAEAAU123@ABU123@AAVconcurrent_queue_base_v3@23@@Z$0 10001737 f   concurrent_queue.obj
 0001:00000d03       __catch$?internal_push@concurrent_queue_base_v3@internal@tbb@@IAEXPBX@Z$0 10001d03 f   concurrent_queue.obj
 0001:00000d34       __catch$?internal_push@concurrent_queue_base_v3@internal@tbb@@IAEXPBX@Z$1 10001d34 f   concurrent_queue.obj
 0001:00000f22       __catch$?internal_pop@concurrent_queue_base_v3@internal@tbb@@IAEXPAX@Z$0 10001f22 f   concurrent_queue.obj
 0001:00000f42       __catch$?internal_pop@concurrent_queue_base_v3@internal@tbb@@IAEXPAX@Z$1 10001f42 f   concurrent_queue.obj
 0001:000017f0       ?__TBB_machine_cmpswp4@@YAHPCXHH@Z 100027f0 f   concurrent_queue.obj
 0001:00001820       ?__TBB_machine_fetchadd4@@YAHPCXH@Z 10002820 f   concurrent_queue.obj
 0001:000029a0       ?__TBB_machine_pause@@YAXH@Z 100039a0 f   concurrent_vector.obj
 0001:00002a75       __catch$?enable_segment@helper@concurrent_vector_base_v3@internal@tbb@@SAIAAV234@II@Z$0 10003a75 f   concurrent_vector.obj
 0001:00002bcd       __catch$?enable_segment@helper@concurrent_vector_base_v3@internal@tbb@@SAIAAV234@II@Z$2 10003bcd f   concurrent_vector.obj
 0001:00002e50       ?__TBB_machine_lg@@YAHI@Z  10003e50 f   concurrent_vector.obj
 0001:000030ea       __catch$?internal_reserve@concurrent_vector_base_v3@internal@tbb@@IAEXIII@Z$0 100040ea f   concurrent_vector.obj
 0001:00003670       ?__TBB_machine_fetchadd4@@YAHPCXH@Z 10004670 f   concurrent_vector.obj
 0001:00003ea3       __catch$?internal_compact@concurrent_vector_base_v3@internal@tbb@@IAEPAXIPAXP6AX0I@ZP6AX0PBXI@Z@Z$0 10004ea3 f   concurrent_vector.obj
 0001:000042d0       ?__TBB_machine_cmpswp4@@YAHPCXHH@Z 100052d0 f   concurrent_vector.obj
 0001:00004ec0       ?dynamic_link_warning@internal@tbb@@YAXW4dynamic_link_error_t@12@ZZ 10005ec0 f   dynamic_link.obj
 0001:00005130       ?abs_path@internal@tbb@@YAIPBDPADI@Z 10006130 f   dynamic_link.obj
 0001:000052e0       ?__TBB_machine_fetchadd4@@YAHPCXH@Z 100062e0 f   dynamic_link.obj
 0001:00005300       ?__TBB_machine_fetchstore4@@YAHPCXH@Z 10006300 f   dynamic_link.obj
 0001:00005450       ?__itt_sync_createA_init_3_0@@YAXPAXPBD1H@Z 10006450 f   itt_notify.obj
 0001:00005490       ?__itt_sync_createW_init_3_0@@YAXPAXPB_W1H@Z 10006490 f   itt_notify.obj
 0001:000054d0       ?__itt_sync_renameA_init_3_0@@YAXPAXPBD@Z 100064d0 f   itt_notify.obj
 0001:00005500       ?__itt_sync_renameW_init_3_0@@YAXPAXPB_W@Z 10006500 f   itt_notify.obj
 0001:00005530       ?__itt_sync_destroy_init_3_0@@YAXPAX@Z 10006530 f   itt_notify.obj
 0001:00005560       ?__itt_sync_prepare_init_3_0@@YAXPAX@Z 10006560 f   itt_notify.obj
 0001:00005590       ?__itt_sync_cancel_init_3_0@@YAXPAX@Z 10006590 f   itt_notify.obj
 0001:000055c0       ?__itt_sync_acquired_init_3_0@@YAXPAX@Z 100065c0 f   itt_notify.obj
 0001:000055f0       ?__itt_sync_releasing_init_3_0@@YAXPAX@Z 100065f0 f   itt_notify.obj
 0001:00005620       ?__itt_fsync_prepare_init_3_0@@YAXPAX@Z 10006620 f   itt_notify.obj
 0001:00005650       ?__itt_fsync_cancel_init_3_0@@YAXPAX@Z 10006650 f   itt_notify.obj
 0001:00005680       ?__itt_fsync_acquired_init_3_0@@YAXPAX@Z 10006680 f   itt_notify.obj
 0001:000056b0       ?__itt_fsync_releasing_init_3_0@@YAXPAX@Z 100066b0 f   itt_notify.obj
 0001:000056e0       ?__itt_model_site_begin_init_3_0@@YAXPAPAX0PBD@Z 100066e0 f   itt_notify.obj
 0001:00005720       ?__itt_model_site_end_init_3_0@@YAXPAPAX0@Z 10006720 f   itt_notify.obj
 0001:00005750       ?__itt_model_task_begin_init_3_0@@YAXPAPAX0PBD@Z 10006750 f   itt_notify.obj
 0001:00005790       ?__itt_model_task_end_init_3_0@@YAXPAPAX0@Z 10006790 f   itt_notify.obj
 0001:000057c0       ?__itt_model_lock_acquire_init_3_0@@YAXPAX@Z 100067c0 f   itt_notify.obj
 0001:000057f0       ?__itt_model_lock_release_init_3_0@@YAXPAX@Z 100067f0 f   itt_notify.obj
 0001:00005820       ?__itt_model_record_allocation_init_3_0@@YAXPAXI@Z 10006820 f   itt_notify.obj
 0001:00005850       ?__itt_model_record_deallocation_init_3_0@@YAXPAX@Z 10006850 f   itt_notify.obj
 0001:00005880       ?__itt_model_induction_uses_init_3_0@@YAXPAXI@Z 10006880 f   itt_notify.obj
 0001:000058b0       ?__itt_model_reduction_uses_init_3_0@@YAXPAXI@Z 100068b0 f   itt_notify.obj
 0001:000058e0       ?__itt_model_observe_uses_init_3_0@@YAXPAXI@Z 100068e0 f   itt_notify.obj
 0001:00005910       ?__itt_model_clear_uses_init_3_0@@YAXPAX@Z 10006910 f   itt_notify.obj
 0001:00005940       ?__itt_model_disable_push_init_3_0@@YAXW4__itt_model_disable@@@Z 10006940 f   itt_notify.obj
 0001:00005970       ?__itt_model_disable_pop_init_3_0@@YAXXZ 10006970 f   itt_notify.obj
 0001:000059a0       ?__itt_model_site_beginW_init_3_0@@YAXPB_W@Z 100069a0 f   itt_notify.obj
 0001:000059d0       ?__itt_model_task_beginW_init_3_0@@YAXPB_W@Z 100069d0 f   itt_notify.obj
 0001:00005a00       ?__itt_model_site_beginAL_init_3_0@@YAXPBDI@Z 10006a00 f   itt_notify.obj
 0001:00005a30       ?__itt_model_task_beginAL_init_3_0@@YAXPBDI@Z 10006a30 f   itt_notify.obj
 0001:00005a60       ?__itt_heap_function_createA_init_3_0@@YAPAXPBD0@Z 10006a60 f   itt_notify.obj
 0001:00005aa0       ?__itt_heap_function_createW_init_3_0@@YAPAXPB_W0@Z 10006aa0 f   itt_notify.obj
 0001:00005ae0       ?__itt_heap_allocate_begin_init_3_0@@YAXPAXIH@Z 10006ae0 f   itt_notify.obj
 0001:00005b20       ?__itt_heap_allocate_end_init_3_0@@YAXPAXPAPAXIH@Z 10006b20 f   itt_notify.obj
 0001:00005b60       ?__itt_heap_free_begin_init_3_0@@YAXPAX0@Z 10006b60 f   itt_notify.obj
 0001:00005b90       ?__itt_heap_free_end_init_3_0@@YAXPAX0@Z 10006b90 f   itt_notify.obj
 0001:00005bc0       ?__itt_heap_reallocate_begin_init_3_0@@YAXPAX0IH@Z 10006bc0 f   itt_notify.obj
 0001:00005c00       ?__itt_heap_reallocate_end_init_3_0@@YAXPAX0PAPAXIH@Z 10006c00 f   itt_notify.obj
 0001:00005c40       ?__itt_heap_internal_access_begin_init_3_0@@YAXXZ 10006c40 f   itt_notify.obj
 0001:00005c70       ?__itt_heap_internal_access_end_init_3_0@@YAXXZ 10006c70 f   itt_notify.obj
 0001:00005ca0       ?__itt_id_create_init_3_0@@YAXPBU___itt_domain@@U___itt_id@@@Z 10006ca0 f   itt_notify.obj
 0001:00005d00       ?__itt_id_destroy_init_3_0@@YAXPBU___itt_domain@@U___itt_id@@@Z 10006d00 f   itt_notify.obj
 0001:00005d60       ?__itt_region_begin_init_3_0@@YAXPBU___itt_domain@@U___itt_id@@1PAU___itt_string_handle@@@Z 10006d60 f   itt_notify.obj
 0001:00005df0       ?__itt_region_end_init_3_0@@YAXPBU___itt_domain@@U___itt_id@@@Z 10006df0 f   itt_notify.obj
 0001:00005e50       ?__itt_frame_begin_v3_init_3_0@@YAXPBU___itt_domain@@PAU___itt_id@@@Z 10006e50 f   itt_notify.obj
 0001:00005e80       ?__itt_frame_end_v3_init_3_0@@YAXPBU___itt_domain@@PAU___itt_id@@@Z 10006e80 f   itt_notify.obj
 0001:00005eb0       ?__itt_task_group_init_3_0@@YAXPBU___itt_domain@@U___itt_id@@1PAU___itt_string_handle@@@Z 10006eb0 f   itt_notify.obj
 0001:00005f40       ?__itt_task_begin_init_3_0@@YAXPBU___itt_domain@@U___itt_id@@1PAU___itt_string_handle@@@Z 10006f40 f   itt_notify.obj
 0001:00005fd0       ?__itt_task_begin_fn_init_3_0@@YAXPBU___itt_domain@@U___itt_id@@1PAX@Z 10006fd0 f   itt_notify.obj
 0001:00006060       ?__itt_task_end_init_3_0@@YAXPBU___itt_domain@@@Z 10007060 f   itt_notify.obj
 0001:00006090       ?__itt_counter_inc_v3_init_3_0@@YAXPBU___itt_domain@@PAU___itt_string_handle@@@Z 10007090 f   itt_notify.obj
 0001:000060c0       ?__itt_counter_inc_delta_v3_init_3_0@@YAXPBU___itt_domain@@PAU___itt_string_handle@@_K@Z 100070c0 f   itt_notify.obj
 0001:00006100       ?__itt_marker_init_3_0@@YAXPBU___itt_domain@@U___itt_id@@PAU___itt_string_handle@@W4__itt_scope@@@Z 10007100 f   itt_notify.obj
 0001:00006160       ?__itt_metadata_add_init_3_0@@YAXPBU___itt_domain@@U___itt_id@@PAU___itt_string_handle@@W4__itt_metadata_type@@IPAX@Z 10007160 f   itt_notify.obj
 0001:000061d0       ?__itt_metadata_str_addA_init_3_0@@YAXPBU___itt_domain@@U___itt_id@@PAU___itt_string_handle@@PBDI@Z 100071d0 f   itt_notify.obj
 0001:00006240       ?__itt_metadata_str_addW_init_3_0@@YAXPBU___itt_domain@@U___itt_id@@PAU___itt_string_handle@@PB_WI@Z 10007240 f   itt_notify.obj
 0001:000062b0       ?__itt_relation_add_to_current_init_3_0@@YAXPBU___itt_domain@@W4__itt_relation@@U___itt_id@@@Z 100072b0 f   itt_notify.obj
 0001:00006310       ?__itt_relation_add_init_3_0@@YAXPBU___itt_domain@@U___itt_id@@W4__itt_relation@@1@Z 10007310 f   itt_notify.obj
 0001:000063a0       ?__itt_event_createA_init_3_0@@YAHPBDH@Z 100073a0 f   itt_notify.obj
 0001:000063e0       ?__itt_event_createW_init_3_0@@YAHPB_WH@Z 100073e0 f   itt_notify.obj
 0001:00006420       ?__itt_event_start_init_3_0@@YAHH@Z 10007420 f   itt_notify.obj
 0001:00006460       ?__itt_event_end_init_3_0@@YAHH@Z 10007460 f   itt_notify.obj
 0001:000064a0       ?__itt_sync_set_nameA_init_3_0@@YAXPAXPBD1H@Z 100074a0 f   itt_notify.obj
 0001:000064e0       ?__itt_sync_set_nameW_init_3_0@@YAXPAXPB_W1H@Z 100074e0 f   itt_notify.obj
 0001:00006520       ?__itt_notify_sync_nameA_init_3_0@@YAHPAXPBDH1HH@Z 10007520 f   itt_notify.obj
 0001:00006570       ?__itt_notify_sync_nameW_init_3_0@@YAHPAXPB_WH1HH@Z 10007570 f   itt_notify.obj
 0001:000065c0       ?__itt_notify_sync_prepare_init_3_0@@YAXPAX@Z 100075c0 f   itt_notify.obj
 0001:000065f0       ?__itt_notify_sync_cancel_init_3_0@@YAXPAX@Z 100075f0 f   itt_notify.obj
 0001:00006620       ?__itt_notify_sync_acquired_init_3_0@@YAXPAX@Z 10007620 f   itt_notify.obj
 0001:00006650       ?__itt_notify_sync_releasing_init_3_0@@YAXPAX@Z 10007650 f   itt_notify.obj
 0001:00006680       ?__itt_memory_read_init_3_0@@YAXPAXI@Z 10007680 f   itt_notify.obj
 0001:000066b0       ?__itt_memory_write_init_3_0@@YAXPAXI@Z 100076b0 f   itt_notify.obj
 0001:000066e0       ?__itt_memory_update_init_3_0@@YAXPAXI@Z 100076e0 f   itt_notify.obj
 0001:00006710       ?__itt_state_get_init_3_0@@YAHXZ 10007710 f   itt_notify.obj
 0001:00006740       ?__itt_state_set_init_3_0@@YAHH@Z 10007740 f   itt_notify.obj
 0001:00006780       ?__itt_obj_mode_set_init_3_0@@YA?AW4__itt_obj_state@@W4__itt_obj_prop@@W41@@Z 10007780 f   itt_notify.obj
 0001:000067c0       ?__itt_thr_mode_set_init_3_0@@YA?AW4__itt_thr_state@@W4__itt_thr_prop@@W41@@Z 100077c0 f   itt_notify.obj
 0001:00006800       ?__itt_frame_createA_init_3_0@@YAPAU__itt_frame_t@@PBD@Z 10007800 f   itt_notify.obj
 0001:00006840       ?__itt_frame_createW_init_3_0@@YAPAU__itt_frame_t@@PB_W@Z 10007840 f   itt_notify.obj
 0001:00006880       ?__itt_frame_begin_init_3_0@@YAXPAU__itt_frame_t@@@Z 10007880 f   itt_notify.obj
 0001:000068b0       ?__itt_frame_end_init_3_0@@YAXPAU__itt_frame_t@@@Z 100078b0 f   itt_notify.obj
 0001:000068e0       ?__itt_counter_createA_init_3_0@@YAPAU___itt_counter@@PBD0@Z 100078e0 f   itt_notify.obj
 0001:00006920       ?__itt_counter_createW_init_3_0@@YAPAU___itt_counter@@PB_W0@Z 10007920 f   itt_notify.obj
 0001:00006960       ?__itt_counter_destroy_init_3_0@@YAXPAU___itt_counter@@@Z 10007960 f   itt_notify.obj
 0001:00006990       ?__itt_counter_inc_init_3_0@@YAXPAU___itt_counter@@@Z 10007990 f   itt_notify.obj
 0001:000069c0       ?__itt_counter_inc_delta_init_3_0@@YAXPAU___itt_counter@@_K@Z 100079c0 f   itt_notify.obj
 0001:00006a00       ?__itt_mark_createA_init_3_0@@YAHPBD@Z 10007a00 f   itt_notify.obj
 0001:00006a40       ?__itt_mark_createW_init_3_0@@YAHPB_W@Z 10007a40 f   itt_notify.obj
 0001:00006a80       ?__itt_markA_init_3_0@@YAHHPBD@Z 10007a80 f   itt_notify.obj
 0001:00006ac0       ?__itt_markW_init_3_0@@YAHHPB_W@Z 10007ac0 f   itt_notify.obj
 0001:00006b00       ?__itt_mark_off_init_3_0@@YAHH@Z 10007b00 f   itt_notify.obj
 0001:00006b40       ?__itt_mark_globalA_init_3_0@@YAHHPBD@Z 10007b40 f   itt_notify.obj
 0001:00006b80       ?__itt_mark_globalW_init_3_0@@YAHHPB_W@Z 10007b80 f   itt_notify.obj
 0001:00006bc0       ?__itt_mark_global_off_init_3_0@@YAHH@Z 10007bc0 f   itt_notify.obj
 0001:00006c00       ?__itt_stack_caller_create_init_3_0@@YAPAU___itt_caller@@XZ 10007c00 f   itt_notify.obj
 0001:00006c30       ?__itt_stack_caller_destroy_init_3_0@@YAXPAU___itt_caller@@@Z 10007c30 f   itt_notify.obj
 0001:00006c60       ?__itt_stack_callee_enter_init_3_0@@YAXPAU___itt_caller@@@Z 10007c60 f   itt_notify.obj
 0001:00006c90       ?__itt_stack_callee_leave_init_3_0@@YAXPAU___itt_caller@@@Z 10007c90 f   itt_notify.obj
 0001:00006cc0       ?__itt_clock_domain_create_init_3_0@@YAPAU___itt_clock_domain@@P6AXPAU___itt_clock_info@@PAX@Z1@Z 10007cc0 f   itt_notify.obj
 0001:00006d00       ?__itt_clock_domain_reset_init_3_0@@YAXXZ 10007d00 f   itt_notify.obj
 0001:00006d30       ?__itt_id_create_ex_init_3_0@@YAXPBU___itt_domain@@PAU___itt_clock_domain@@_KU___itt_id@@@Z 10007d30 f   itt_notify.obj
 0001:00006da0       ?__itt_id_destroy_ex_init_3_0@@YAXPBU___itt_domain@@PAU___itt_clock_domain@@_KU___itt_id@@@Z 10007da0 f   itt_notify.obj
 0001:00006e10       ?__itt_task_begin_ex_init_3_0@@YAXPBU___itt_domain@@PAU___itt_clock_domain@@_KU___itt_id@@3PAU___itt_string_handle@@@Z 10007e10 f   itt_notify.obj
 0001:00006ea0       ?__itt_task_begin_fn_ex_init_3_0@@YAXPBU___itt_domain@@PAU___itt_clock_domain@@_KU___itt_id@@3PAX@Z 10007ea0 f   itt_notify.obj
 0001:00006f30       ?__itt_task_end_ex_init_3_0@@YAXPBU___itt_domain@@PAU___itt_clock_domain@@_K@Z 10007f30 f   itt_notify.obj
 0001:00006f70       ?__itt_task_begin_overlapped_init_3_0@@YAXPBU___itt_domain@@U___itt_id@@1PAU___itt_string_handle@@@Z 10007f70 f   itt_notify.obj
 0001:00007000       ?__itt_task_begin_overlapped_ex_init_3_0@@YAXPBU___itt_domain@@PAU___itt_clock_domain@@_KU___itt_id@@3PAU___itt_string_handle@@@Z 10008000 f   itt_notify.obj
 0001:00007090       ?__itt_task_end_overlapped_init_3_0@@YAXPBU___itt_domain@@U___itt_id@@@Z 10008090 f   itt_notify.obj
 0001:000070f0       ?__itt_task_end_overlapped_ex_init_3_0@@YAXPBU___itt_domain@@PAU___itt_clock_domain@@_KU___itt_id@@@Z 100080f0 f   itt_notify.obj
 0001:00007160       ?__itt_marker_ex_init_3_0@@YAXPBU___itt_domain@@PAU___itt_clock_domain@@_KU___itt_id@@PAU___itt_string_handle@@W4__itt_scope@@@Z 10008160 f   itt_notify.obj
 0001:000071d0       ?__itt_metadata_add_with_scope_init_3_0@@YAXPBU___itt_domain@@W4__itt_scope@@PAU___itt_string_handle@@W4__itt_metadata_type@@IPAX@Z 100081d0 f   itt_notify.obj
 0001:00007210       ?__itt_metadata_str_add_with_scopeA_init_3_0@@YAXPBU___itt_domain@@W4__itt_scope@@PAU___itt_string_handle@@PBDI@Z 10008210 f   itt_notify.obj
 0001:00007250       ?__itt_metadata_str_add_with_scopeW_init_3_0@@YAXPBU___itt_domain@@W4__itt_scope@@PAU___itt_string_handle@@PB_WI@Z 10008250 f   itt_notify.obj
 0001:00007290       ?__itt_relation_add_to_current_ex_init_3_0@@YAXPBU___itt_domain@@PAU___itt_clock_domain@@_KW4__itt_relation@@U___itt_id@@@Z 10008290 f   itt_notify.obj
 0001:00007300       ?__itt_relation_add_ex_init_3_0@@YAXPBU___itt_domain@@PAU___itt_clock_domain@@_KU___itt_id@@W4__itt_relation@@3@Z 10008300 f   itt_notify.obj
 0001:00007390       ?__itt_track_group_create_init_3_0@@YAPAU___itt_track_group@@PAU___itt_string_handle@@W4___itt_track_group_type@@@Z 10008390 f   itt_notify.obj
 0001:000073d0       ?__itt_track_create_init_3_0@@YAPAU___itt_track@@PAU___itt_track_group@@PAU___itt_string_handle@@W4___itt_track_type@@@Z 100083d0 f   itt_notify.obj
 0001:00007410       ?__itt_set_track_init_3_0@@YAXPAU___itt_track@@@Z 10008410 f   itt_notify.obj
 0001:00007440       ?__itt_api_version_init_3_0@@YAPBDXZ 10008440 f   itt_notify.obj
 0001:00007470       ?__itt_domain_createW_init_3_0@@YAPAU___itt_domain@@PB_W@Z 10008470 f   itt_notify.obj
 0001:00007610       ?__itt_domain_createA_init_3_0@@YAPAU___itt_domain@@PBD@Z 10008610 f   itt_notify.obj
 0001:000077a0       ?__itt_string_handle_createW_init_3_0@@YAPAU___itt_string_handle@@PB_W@Z 100087a0 f   itt_notify.obj
 0001:00007930       ?__itt_string_handle_createA_init_3_0@@YAPAU___itt_string_handle@@PBD@Z 10008930 f   itt_notify.obj
 0001:00007ab0       ?__itt_pause_init_3_0@@YAXXZ 10008ab0 f   itt_notify.obj
 0001:00007b00       ?__itt_resume_init_3_0@@YAXXZ 10008b00 f   itt_notify.obj
 0001:00007b50       ?__itt_thread_set_nameW_init_3_0@@YAXPB_W@Z 10008b50 f   itt_notify.obj
 0001:00007cc0       ?__itt_thr_name_setW_init_3_0@@YAHPB_WH@Z 10008cc0 f   itt_notify.obj
 0001:00007ce0       ?__itt_thread_set_nameA_init_3_0@@YAXPBD@Z 10008ce0 f   itt_notify.obj
 0001:00007e50       ?__itt_thr_name_setA_init_3_0@@YAHPBDH@Z 10008e50 f   itt_notify.obj
 0001:00007e70       ?__itt_thread_ignore_init_3_0@@YAXXZ 10008e70 f   itt_notify.obj
 0001:00007fc0       ?__itt_thr_ignore_init_3_0@@YAXXZ 10008fc0 f   itt_notify.obj
 0001:00008060       ?__itt_nullify_all_pointers@@YAXXZ 10009060 f   itt_notify.obj
 0001:00008410       ?__itt_report_error@@YAXW4__itt_error_code@@ZZ 10009410 f   itt_notify.obj
 0001:00008450       ?__itt_get_lib_name@@YAPBDXZ 10009450 f   itt_notify.obj
 0001:00008480       ?__itt_get_env_var@@YAPBDPBD@Z 10009480 f   itt_notify.obj
 0001:00008540       ?__itt_get_lib_name_registry@@YAPBDXZ 10009540 f   itt_notify.obj
 0001:000086a0       ?__itt_get_groups@@YA?AW4___itt_group_id@@XZ 100096a0 f   itt_notify.obj
 0001:00008860       ?__itt_fsplit@@YAPBDPBD0PAPBDPAH@Z 10009860 f   itt_notify.obj
 0001:00008a10       ?__itt_lib_version@@YAHPAUHINSTANCE__@@@Z 10009a10 f   itt_notify.obj
 0001:00008b80       ?DummyMalloc@internal@tbb@@YAPAXI@Z 10009b80 f   cache_aligned_allocator.obj
 0001:00008bc0       ?DummyFree@internal@tbb@@YAXPAX@Z 10009bc0 f   cache_aligned_allocator.obj
 0001:00008c00       ?dummy_padded_allocate@internal@tbb@@YAPAXII@Z 10009c00 f   cache_aligned_allocator.obj
 0001:00008c50       ?dummy_padded_free@internal@tbb@@YAXPAX@Z 10009c50 f   cache_aligned_allocator.obj
 0001:00008db0       ?padded_allocate@internal@tbb@@YAPAXII@Z 10009db0 f   cache_aligned_allocator.obj
 0001:00008e00       ?padded_free@internal@tbb@@YAXPAX@Z 10009e00 f   cache_aligned_allocator.obj
 0001:00008f90       ?__TBB_machine_pause@@YAXH@Z 10009f90 f   cache_aligned_allocator.obj
 0001:00008fa0       ?__TBB_machine_cmpswp4@@YAHPCXHH@Z 10009fa0 f   cache_aligned_allocator.obj
 0001:0000a5d0       ?__TBB_machine_fetchadd4@@YAHPCXH@Z 1000b5d0 f   pipeline.obj
 0001:0000bfb0       ?__TBB_machine_pause@@YAXH@Z 1000cfb0 f   queuing_mutex.obj
 0001:0000bfc0       ?__TBB_machine_cmpswp4@@YAHPCXHH@Z 1000cfc0 f   queuing_mutex.obj
 0001:0000bff0       ?__TBB_machine_fetchstore4@@YAHPCXH@Z 1000cff0 f   queuing_mutex.obj
 0001:0000cab0       ?__TBB_machine_pause@@YAXH@Z 1000dab0 f   queuing_rw_mutex.obj
 0001:0000d1a0       ?__TBB_machine_cmpswp1@@YADPCXDD@Z 1000e1a0 f   queuing_rw_mutex.obj
 0001:0000d1d0       ?__TBB_machine_cmpswp4@@YAHPCXHH@Z 1000e1d0 f   queuing_rw_mutex.obj
 0001:0000d200       ?__TBB_machine_fetchstore4@@YAHPCXH@Z 1000e200 f   queuing_rw_mutex.obj
 0001:0000d220       ?__TBB_machine_fetchadd4@@YAHPCXH@Z 1000e220 f   queuing_rw_mutex.obj
 0001:0000de20       ?__TBB_machine_OR@@YAXPCXH@Z 1000ee20 f   reader_writer_lock.obj
 0001:0000de30       ?__TBB_machine_pause@@YAXH@Z 1000ee30 f   reader_writer_lock.obj
 0001:0000e590       ?__TBB_machine_cmpswp4@@YAHPCXHH@Z 1000f590 f   reader_writer_lock.obj
 0001:0000e5c0       ?__TBB_machine_fetchadd4@@YAHPCXH@Z 1000f5c0 f   reader_writer_lock.obj
 0001:0000e5e0       ?__TBB_machine_fetchstore4@@YAHPCXH@Z 1000f5e0 f   reader_writer_lock.obj
 0001:0000ec70       ?__TBB_machine_OR@@YAXPCXH@Z 1000fc70 f   spin_rw_mutex.obj
 0001:0000ec80       ?__TBB_machine_pause@@YAXH@Z 1000fc80 f   spin_rw_mutex.obj
 0001:0000ecd0       ?__TBB_machine_AND@@YAXPCXH@Z 1000fcd0 f   spin_rw_mutex.obj
 0001:0000ed90       ?__TBB_machine_fetchadd4@@YAHPCXH@Z 1000fd90 f   spin_rw_mutex.obj
 0001:0000f090       ??$CAS@H@tbb@@YAHACHHH@Z   10010090 f   spin_rw_mutex.obj
 0001:0000f0b0       ?__TBB_machine_cmpswp4@@YAHPCXHH@Z 100100b0 f   spin_rw_mutex.obj
 0001:0000f180       ?__TBB_machine_pause@@YAXH@Z 10010180 f   spin_mutex.obj
 0001:0000f190       ?__TBB_machine_cmpswp1@@YADPCXDD@Z 10010190 f   spin_mutex.obj
 0001:0000f770       ?__TBB_machine_fetchadd4@@YAHPCXH@Z 10010770 f   task.obj
 0001:00010e10       ?__TBB_machine_pause@@YAXH@Z 10011e10 f   tbb_misc.obj
 0001:00010e20       ?__TBB_machine_fetchadd4@@YAHPCXH@Z 10011e20 f   tbb_misc.obj
 0001:00011700       ?initialize_hardware_concurrency_info@internal@tbb@@YAXXZ 10012700 f   tbb_misc_ex.obj
 0001:00011be0       ?__TBB_machine_pause@@YAXH@Z 10012be0 f   tbb_misc_ex.obj
 0001:00011bf0       ?__TBB_machine_cmpswp4@@YAHPCXHH@Z 10012bf0 f   tbb_misc_ex.obj
 0001:00012690       ?__TBB_machine_pause@@YAXH@Z 10013690 f   condition_variable.obj
 0001:000126a0       ?__TBB_machine_cmpswp4@@YAHPCXHH@Z 100136a0 f   condition_variable.obj
 0001:000133e0       ?__TBB_machine_pause@@YAXH@Z 100143e0 f   semaphore.obj
 0001:000133f0       ?__TBB_machine_cmpswp4@@YAHPCXHH@Z 100143f0 f   semaphore.obj
 0001:00013b90       ?__TBB_machine_cmpswp4@@YAHPCXHH@Z 10014b90 f   private_server.obj
 0001:00013bc0       ?__TBB_machine_fetchadd4@@YAHPCXH@Z 10014bc0 f   private_server.obj
 0001:00013be0       ?__TBB_machine_fetchstore1@@YADPCXD@Z 10014be0 f   private_server.obj
 0001:00014ee0       ?__TBB_machine_fetchstore4@@YAHPCXH@Z 10015ee0 f   task_group_context.obj
 0001:00015360       ?__TBB_machine_cmpswp4@@YAHPCXHH@Z 10016360 f   task_group_context.obj
 0001:0001543d       __catch$?register_pending_exception@task_group_context@tbb@@QAEXXZ$0 1001643d f   task_group_context.obj
 0001:0001548e       __catch$?register_pending_exception@task_group_context@tbb@@QAEXXZ$1 1001648e f   task_group_context.obj
 0001:0001550c       __catch$?register_pending_exception@task_group_context@tbb@@QAEXXZ$2 1001650c f   task_group_context.obj
 0001:00015670       ?__TBB_machine_pause@@YAXH@Z 10016670 f   task_group_context.obj
 0001:00015680       ?__TBB_machine_fetchadd4@@YAHPCXH@Z 10016680 f   task_group_context.obj
 0001:000172d0       ?__TBB_machine_pause@@YAXH@Z 100182d0 f   governor.obj
 0001:000172e0       ?__TBB_machine_cmpswp4@@YAHPCXHH@Z 100182e0 f   governor.obj
 0001:00018de0       ?__TBB_machine_fetchadd4@@YAHPCXH@Z 10019de0 f   market.obj
 0001:00019ad0       ?__TBB_machine_cmpswp4@@YAHPCXHH@Z 1001aad0 f   arena.obj
 0001:00019e20       ?__TBB_machine_lg@@YAHI@Z  1001ae20 f   arena.obj
 0001:0001a200       ?__TBB_machine_AND@@YAXPCXH@Z 1001b200 f   arena.obj
 0001:0001a700       ?__TBB_machine_fetchadd4@@YAHPCXH@Z 1001b700 f   arena.obj
 0001:0001c310       ?__TBB_machine_fetchstore4@@YAHPCXH@Z 1001d310 f   scheduler.obj
 0001:0001c480       ?__TBB_machine_fetchadd4@@YAHPCXH@Z 1001d480 f   scheduler.obj
 0001:0001c790       ?__TBB_machine_cmpswp4@@YAHPCXHH@Z 1001d790 f   scheduler.obj
 0001:0001c940       ?__TBB_machine_pause@@YAXH@Z 1001d940 f   scheduler.obj
 0001:0001cf70       ?__TBB_machine_OR@@YAXPCXH@Z 1001df70 f   scheduler.obj
 0001:0001e270       ?__TBB_machine_AND@@YAXPCXH@Z 1001f270 f   scheduler.obj
 0001:00020841       __catch$?local_wait_for_all@?$custom_scheduler@UDefaultSchedulerTraits@internal@tbb@@@internal@tbb@@EAEXAAVtask@3@PAV43@@Z$3 10021841 f i scheduler.obj
 0001:000208b7       __catch$?local_wait_for_all@?$custom_scheduler@UDefaultSchedulerTraits@internal@tbb@@@internal@tbb@@EAEXAAVtask@3@PAV43@@Z$4 100218b7 f i scheduler.obj
 0001:0002095a       __catch$?local_wait_for_all@?$custom_scheduler@UDefaultSchedulerTraits@internal@tbb@@@internal@tbb@@EAEXAAVtask@3@PAV43@@Z$5 1002195a f i scheduler.obj
 0001:00022852       __catch$?local_wait_for_all@?$custom_scheduler@UIntelSchedulerTraits@internal@tbb@@@internal@tbb@@EAEXAAVtask@3@PAV43@@Z$3 10023852 f i scheduler.obj
 0001:000228c8       __catch$?local_wait_for_all@?$custom_scheduler@UIntelSchedulerTraits@internal@tbb@@@internal@tbb@@EAEXAAVtask@3@PAV43@@Z$4 100238c8 f i scheduler.obj
 0001:0002296b       __catch$?local_wait_for_all@?$custom_scheduler@UIntelSchedulerTraits@internal@tbb@@@internal@tbb@@EAEXAAVtask@3@PAV43@@Z$5 1002396b f i scheduler.obj
 0001:00023d2b       __catch$??$_Uninit_copy@PAPAPAVtask@tbb@@PAPAPAV12@V?$tbb_allocator@PAPAVtask@tbb@@@2@@std@@YAPAPAPAVtask@tbb@@PAPAPAV12@00AAV?$tbb_allocator@PAPAVtask@tbb@@@2@U_Nonscalar_ptr_iterator_tag@0@@Z$0 10024d2b f i scheduler.obj
 0001:00023e02       __catch$??$_Uninit_def_fill_n@PAPAPAVtask@tbb@@IPAPAV12@V?$tbb_allocator@PAPAVtask@tbb@@@2@PAPAV12@@std@@YAXPAPAPAVtask@tbb@@IPBQAPAV12@AAV?$tbb_allocator@PAPAVtask@tbb@@@2@0U_Nonscalar_ptr_iterator_tag@0@@Z$0 10024e02 f i scheduler.obj
 0001:00024411       __catch$?process_list@observer_proxy@internal@tbb@@SAPAV123@PAV123@_N1@Z$2 10025411 f   observer_proxy.obj
 0001:00024640       ?__TBB_machine_cmpswp4@@YAHPCXHH@Z 10025640 f   observer_proxy.obj
 0001:00024670       ?__TBB_machine_fetchadd4@@YAHPCXH@Z 10025670 f   observer_proxy.obj
 0001:00024940       ?__TBB_machine_pause@@YAXH@Z 10025940 f   tbb_main.obj
 0001:00024950       ?__TBB_machine_cmpswp1@@YADPCXDD@Z 10025950 f   tbb_main.obj
 0001:00024c00       ?__TBB_machine_fetchadd4@@YAHPCXH@Z 10025c00 f   tbb_main.obj
 0001:00024d90       ?__TBB_machine_pause@@YAXH@Z 10025d90 f   concurrent_vector_v2.obj
 0001:00025230       ?__TBB_machine_lg@@YAHI@Z  10026230 f   concurrent_vector_v2.obj
 0001:000253c0       ?__TBB_machine_fetchadd4@@YAHPCXH@Z 100263c0 f   concurrent_vector_v2.obj
 0001:00025760       ?__TBB_machine_cmpswp4@@YAHPCXHH@Z 10026760 f   concurrent_vector_v2.obj
 0001:00025f90       ?__TBB_machine_pause@@YAXH@Z 10026f90 f   concurrent_queue_v2.obj
 0001:00026410       ?__TBB_machine_cmpswp4@@YAHPCXHH@Z 10027410 f   concurrent_queue_v2.obj
 0001:00026440       ?__TBB_machine_fetchadd4@@YAHPCXH@Z 10027440 f   concurrent_queue_v2.obj
 0001:00026870       ?__TBB_machine_OR@@YAXPCXH@Z 10027870 f   spin_rw_mutex_v2.obj
 0001:00026880       ?__TBB_machine_pause@@YAXH@Z 10027880 f   spin_rw_mutex_v2.obj
 0001:00026890       ?CAS@tbb@@YA_NACIII@Z      10027890 f   spin_rw_mutex_v2.obj
 0001:000268c0       ?__TBB_machine_cmpswp4@@YAHPCXHH@Z 100278c0 f   spin_rw_mutex_v2.obj
 0001:00026c90       ?__TBB_machine_fetchadd4@@YAHPCXH@Z 10027c90 f   spin_rw_mutex_v2.obj
 0001:00027150       ?ArrayUnwindFilter@@YAHPAU_EXCEPTION_POINTERS@@@Z 10028150 f   MSVCRTD:ehvecdtr.obj
 0001:000274b0       _pre_c_init                100284b0 f   MSVCRTD:crtdll.obj
 0001:00027850       ___DllMainCRTStartup       10028850 f   MSVCRTD:crtdll.obj
 0001:00028060       __unwindfunclet$?push@micro_queue@internal@tbb@@QAEXPBXIAAVconcurrent_queue_base_v3@23@@Z$4 10029060 f   concurrent_queue.obj
 0001:00028068       __ehhandler$?push@micro_queue@internal@tbb@@QAEXPBXIAAVconcurrent_queue_base_v3@23@@Z 10029068 f   concurrent_queue.obj
 0001:00028083       __unwindfunclet$?pop@micro_queue@internal@tbb@@QAE_NPAXIAAVconcurrent_queue_base_v3@23@@Z$0 10029083 f   concurrent_queue.obj
 0001:0002808b       __ehhandler$?pop@micro_queue@internal@tbb@@QAE_NPAXIAAVconcurrent_queue_base_v3@23@@Z 1002908b f   concurrent_queue.obj
 0001:000280a6       __ehhandler$?assign@micro_queue@internal@tbb@@QAEAAU123@ABU123@AAVconcurrent_queue_base_v3@23@@Z 100290a6 f   concurrent_queue.obj
 0001:000280c1       __unwindfunclet$?make_invalid@micro_queue@internal@tbb@@QAEXI@Z$0 100290c1 f   concurrent_queue.obj
 0001:000280c9       __ehhandler$?make_invalid@micro_queue@internal@tbb@@QAEXI@Z 100290c9 f   concurrent_queue.obj
 0001:000280e4       __unwindfunclet$??0concurrent_queue_base_v3@internal@tbb@@IAE@I@Z$0 100290e4 f   concurrent_queue.obj
 0001:000280fb       __unwindfunclet$??0concurrent_queue_base_v3@internal@tbb@@IAE@I@Z$1 100290fb f   concurrent_queue.obj
 0001:00028115       __ehhandler$??0concurrent_queue_base_v3@internal@tbb@@IAE@I@Z 10029115 f   concurrent_queue.obj
 0001:00028130       __unwindfunclet$?internal_push@concurrent_queue_base_v3@internal@tbb@@IAEXPBX@Z$3 10029130 f   concurrent_queue.obj
 0001:00028138       __ehhandler$?internal_push@concurrent_queue_base_v3@internal@tbb@@IAEXPBX@Z 10029138 f   concurrent_queue.obj
 0001:0002815d       __unwindfunclet$?internal_pop@concurrent_queue_base_v3@internal@tbb@@IAEXPAX@Z$3 1002915d f   concurrent_queue.obj
 0001:00028165       __ehhandler$?internal_pop@concurrent_queue_base_v3@internal@tbb@@IAEXPAX@Z 10029165 f   concurrent_queue.obj
 0001:0002818a       __unwindfunclet$?initialize@concurrent_queue_iterator_base_v3@internal@tbb@@AAEXABVconcurrent_queue_base_v3@23@I@Z$0 1002918a f   concurrent_queue.obj
 0001:0002819d       __ehhandler$?initialize@concurrent_queue_iterator_base_v3@internal@tbb@@AAEXABVconcurrent_queue_base_v3@23@I@Z 1002919d f   concurrent_queue.obj
 0001:000281c0       __unwindfunclet$??1micro_queue_pop_finalizer@internal@tbb@@QAE@XZ$0 100291c0 f   concurrent_queue.obj
 0001:000281c8       __ehhandler$??1micro_queue_pop_finalizer@internal@tbb@@QAE@XZ 100291c8 f   concurrent_queue.obj
 0001:000281f0       __unwindfunclet$??0concurrent_monitor@internal@tbb@@QAE@XZ$0 100291f0 f   concurrent_queue.obj
 0001:000281fb       __ehhandler$??0concurrent_monitor@internal@tbb@@QAE@XZ 100291fb f   concurrent_queue.obj
 0001:00028220       __unwindfunclet$??$notify_relaxed@Upredicate_leq@internal@tbb@@@concurrent_monitor@internal@tbb@@QAEXABUpredicate_leq@12@@Z$0 10029220 f   concurrent_queue.obj
 0001:00028228       __unwindfunclet$??$notify_relaxed@Upredicate_leq@internal@tbb@@@concurrent_monitor@internal@tbb@@QAEXABUpredicate_leq@12@@Z$1 10029228 f   concurrent_queue.obj
 0001:00028230       __ehhandler$??$notify_relaxed@Upredicate_leq@internal@tbb@@@concurrent_monitor@internal@tbb@@QAEXABUpredicate_leq@12@@Z 10029230 f   concurrent_queue.obj
 0001:00028250       __ehhandler$?enable_segment@helper@concurrent_vector_base_v3@internal@tbb@@SAIAAV234@II@Z 10029250 f   concurrent_vector.obj
 0001:0002826b       __unwindfunclet$??1concurrent_vector_base_v3@internal@tbb@@IAE@XZ$0 1002926b f   concurrent_vector.obj
 0001:00028281       __ehhandler$??1concurrent_vector_base_v3@internal@tbb@@IAE@XZ 10029281 f   concurrent_vector.obj
 0001:0002829c       __ehhandler$?internal_reserve@concurrent_vector_base_v3@internal@tbb@@IAEXIII@Z 1002929c f   concurrent_vector.obj
 0001:000282b7       __unwindfunclet$?internal_grow@concurrent_vector_base_v3@internal@tbb@@IAEXIIIP6AXPAXPBXI@Z1@Z$0 100292b7 f   concurrent_vector.obj
 0001:000282bf       __ehhandler$?internal_grow@concurrent_vector_base_v3@internal@tbb@@IAEXIIIP6AXPAXPBXI@Z1@Z 100292bf f   concurrent_vector.obj
 0001:000282da       __unwindfunclet$?internal_resize@concurrent_vector_base_v3@internal@tbb@@IAEXIIIPBXP6AXPAXI@ZP6AX10I@Z@Z$0 100292da f   concurrent_vector.obj
 0001:000282e2       __unwindfunclet$?internal_resize@concurrent_vector_base_v3@internal@tbb@@IAEXIIIPBXP6AXPAXI@ZP6AX10I@Z@Z$1 100292e2 f   concurrent_vector.obj
 0001:000282ea       __ehhandler$?internal_resize@concurrent_vector_base_v3@internal@tbb@@IAEXIIIPBXP6AXPAXI@ZP6AX10I@Z@Z 100292ea f   concurrent_vector.obj
 0001:00028305       __unwindfunclet$?internal_clear@concurrent_vector_base_v3@internal@tbb@@IAEIP6AXPAXI@Z@Z$0 10029305 f   concurrent_vector.obj
 0001:0002830d       __ehhandler$?internal_clear@concurrent_vector_base_v3@internal@tbb@@IAEIP6AXPAXI@Z@Z 1002930d f   concurrent_vector.obj
 0001:00028328       __unwindfunclet$?internal_compact@concurrent_vector_base_v3@internal@tbb@@IAEPAXIPAXP6AX0I@ZP6AX0PBXI@Z@Z$2 10029328 f   concurrent_vector.obj
 0001:00028330       __ehhandler$?internal_compact@concurrent_vector_base_v3@internal@tbb@@IAEPAXIPAXP6AX0I@ZP6AX0PBXI@Z@Z 10029330 f   concurrent_vector.obj
 0001:00028350       __unwindfunclet$?execute@stage_task@internal@tbb@@UAEPAVtask@3@XZ$2 10029350 f   pipeline.obj
 0001:00028361       __unwindfunclet$?execute@stage_task@internal@tbb@@UAEPAVtask@3@XZ$3 10029361 f   pipeline.obj
 0001:00028372       __ehhandler$?execute@stage_task@internal@tbb@@UAEPAVtask@3@XZ 10029372 f   pipeline.obj
 0001:0002838d       __unwindfunclet$?add_filter@pipeline@tbb@@QAEXAAVfilter@2@@Z$0 1002938d f   pipeline.obj
 0001:00028398       __unwindfunclet$?add_filter@pipeline@tbb@@QAEXAAVfilter@2@@Z$1 10029398 f   pipeline.obj
 0001:000283a3       __unwindfunclet$?add_filter@pipeline@tbb@@QAEXAAVfilter@2@@Z$2 100293a3 f   pipeline.obj
 0001:000283ae       __unwindfunclet$?add_filter@pipeline@tbb@@QAEXAAVfilter@2@@Z$3 100293ae f   pipeline.obj
 0001:000283b9       __ehhandler$?add_filter@pipeline@tbb@@QAEXAAVfilter@2@@Z 100293b9 f   pipeline.obj
 0001:000283d4       __unwindfunclet$?run@pipeline@tbb@@QAEXIAAVtask_group_context@2@@Z$0 100293d4 f   pipeline.obj
 0001:000283dc       __unwindfunclet$?run@pipeline@tbb@@QAEXIAAVtask_group_context@2@@Z$1 100293dc f   pipeline.obj
 0001:000283ed       __ehhandler$?run@pipeline@tbb@@QAEXIAAVtask_group_context@2@@Z 100293ed f   pipeline.obj
 0001:00028408       __unwindfunclet$?run@pipeline@tbb@@QAEXI@Z$0 10029408 f   pipeline.obj
 0001:00028413       __ehhandler$?run@pipeline@tbb@@QAEXI@Z 10029413 f   pipeline.obj
 0001:00028440       __unwindfunclet$?put_token@input_buffer@internal@tbb@@QAE_NAAUtask_info@23@_N@Z$0 10029440 f   pipeline.obj
 0001:00028448       __ehhandler$?put_token@input_buffer@internal@tbb@@QAE_NAAUtask_info@23@_N@Z 10029448 f   pipeline.obj
 0001:00028470       __unwindfunclet$?return_item@input_buffer@internal@tbb@@QAE_NAAUtask_info@23@_N@Z$0 10029470 f   pipeline.obj
 0001:00028478       __ehhandler$?return_item@input_buffer@internal@tbb@@QAE_NAAUtask_info@23@_N@Z 10029478 f   pipeline.obj
 0001:000284a0       __unwindfunclet$??0stage_task@internal@tbb@@QAE@AAVpipeline@2@@Z$0 100294a0 f   pipeline.obj
 0001:000284a8       __ehhandler$??0stage_task@internal@tbb@@QAE@AAVpipeline@2@@Z 100294a8 f   pipeline.obj
 0001:000284d0       __unwindfunclet$??1stage_task@internal@tbb@@UAE@XZ$0 100294d0 f   pipeline.obj
 0001:000284d8       __ehhandler$??1stage_task@internal@tbb@@UAE@XZ 100294d8 f   pipeline.obj
 0001:00028500       __unwindfunclet$?create_sema@input_buffer@internal@tbb@@AAEXI@Z$0 10029500 f   pipeline.obj
 0001:0002850b       __ehhandler$?create_sema@input_buffer@internal@tbb@@AAEXI@Z 1002950b f   pipeline.obj
 0001:00028530       __unwindfunclet$??0pipeline_root_task@internal@tbb@@QAE@AAVpipeline@2@@Z$0 10029530 f   pipeline.obj
 0001:00028538       __ehhandler$??0pipeline_root_task@internal@tbb@@QAE@AAVpipeline@2@@Z 10029538 f   pipeline.obj
 0001:00028560       __unwindfunclet$?execute@pipeline_root_task@internal@tbb@@EAEPAVtask@3@XZ$0 10029560 f   pipeline.obj
 0001:00028571       __unwindfunclet$?execute@pipeline_root_task@internal@tbb@@EAEPAVtask@3@XZ$1 10029571 f   pipeline.obj
 0001:00028582       __ehhandler$?execute@pipeline_root_task@internal@tbb@@EAEPAVtask@3@XZ 10029582 f   pipeline.obj
 0001:000285a0       __unwindfunclet$??$note_done@Vstage_task@internal@tbb@@@input_buffer@internal@tbb@@QAEXKAAVstage_task@12@@Z$0 100295a0 f   pipeline.obj
 0001:000285a8       __ehhandler$??$note_done@Vstage_task@internal@tbb@@@input_buffer@internal@tbb@@QAEXKAAVstage_task@12@@Z 100295a8 f   pipeline.obj
 0001:000285d0       __unwindfunclet$?spawn_stage_task@stage_task@internal@tbb@@QAEXABUtask_info@23@@Z$0 100295d0 f   pipeline.obj
 0001:000285e1       __ehhandler$?spawn_stage_task@stage_task@internal@tbb@@QAEXABUtask_info@23@@Z 100295e1 f   pipeline.obj
 0001:00028600       __unwindfunclet$?lock@reader_writer_lock@interface5@tbb@@QAEXXZ$0 10029600 f   reader_writer_lock.obj
 0001:0002860b       __ehhandler$?lock@reader_writer_lock@interface5@tbb@@QAEXXZ 1002960b f   reader_writer_lock.obj
 0001:00028626       __unwindfunclet$?try_lock@reader_writer_lock@interface5@tbb@@QAE_NXZ$0 10029626 f   reader_writer_lock.obj
 0001:00028631       __ehhandler$?try_lock@reader_writer_lock@interface5@tbb@@QAE_NXZ 10029631 f   reader_writer_lock.obj
 0001:0002864c       __unwindfunclet$?lock_read@reader_writer_lock@interface5@tbb@@QAEXXZ$0 1002964c f   reader_writer_lock.obj
 0001:00028654       __ehhandler$?lock_read@reader_writer_lock@interface5@tbb@@QAEXXZ 10029654 f   reader_writer_lock.obj
 0001:00028670       __unwindfunclet$??1?$deque@PAVtask@tbb@@V?$tbb_allocator@PAVtask@tbb@@@2@@std@@QAE@XZ$0 10029670 f   task.obj
 0001:00028678       __ehhandler$??1?$deque@PAVtask@tbb@@V?$tbb_allocator@PAVtask@tbb@@@2@@std@@QAE@XZ 10029678 f   task.obj
 0001:000286a0       __unwindfunclet$?_Orphan_off@?$deque@PAVtask@tbb@@V?$tbb_allocator@PAVtask@tbb@@@2@@std@@IBEXI@Z$0 100296a0 f   task.obj
 0001:000286a9       __ehhandler$?_Orphan_off@?$deque@PAVtask@tbb@@V?$tbb_allocator@PAVtask@tbb@@@2@@std@@IBEXI@Z 100296a9 f   task.obj
 0001:000286d0       __unwindfunclet$??1?$_Deque_val@PAVtask@tbb@@V?$tbb_allocator@PAVtask@tbb@@@2@@std@@QAE@XZ$0 100296d0 f   task.obj
 0001:000286d9       __ehhandler$??1?$_Deque_val@PAVtask@tbb@@V?$tbb_allocator@PAVtask@tbb@@@2@@std@@QAE@XZ 100296d9 f   task.obj
 0001:00028700       __unwindfunclet$?init@thread_context@concurrent_monitor@internal@tbb@@AAEXXZ$0 10029700 f   concurrent_monitor.obj
 0001:00028711       __ehhandler$?init@thread_context@concurrent_monitor@internal@tbb@@AAEXXZ 10029711 f   concurrent_monitor.obj
 0001:0002872c       __unwindfunclet$??1concurrent_monitor@internal@tbb@@QAE@XZ$0 1002972c f   concurrent_monitor.obj
 0001:00028737       __ehhandler$??1concurrent_monitor@internal@tbb@@QAE@XZ 10029737 f   concurrent_monitor.obj
 0001:00028752       __unwindfunclet$?prepare_wait@concurrent_monitor@internal@tbb@@QAEXAAVthread_context@123@I@Z$0 10029752 f   concurrent_monitor.obj
 0001:0002875a       __ehhandler$?prepare_wait@concurrent_monitor@internal@tbb@@QAEXAAVthread_context@123@I@Z 1002975a f   concurrent_monitor.obj
 0001:00028775       __unwindfunclet$?cancel_wait@concurrent_monitor@internal@tbb@@QAEXAAVthread_context@123@@Z$0 10029775 f   concurrent_monitor.obj
 0001:0002877d       __ehhandler$?cancel_wait@concurrent_monitor@internal@tbb@@QAEXAAVthread_context@123@@Z 1002977d f   concurrent_monitor.obj
 0001:00028798       __unwindfunclet$?notify_one_relaxed@concurrent_monitor@internal@tbb@@QAEXXZ$0 10029798 f   concurrent_monitor.obj
 0001:000287a0       __ehhandler$?notify_one_relaxed@concurrent_monitor@internal@tbb@@QAEXXZ 100297a0 f   concurrent_monitor.obj
 0001:000287bb       __unwindfunclet$?notify_all_relaxed@concurrent_monitor@internal@tbb@@QAEXXZ$0 100297bb f   concurrent_monitor.obj
 0001:000287c3       __unwindfunclet$?notify_all_relaxed@concurrent_monitor@internal@tbb@@QAEXXZ$1 100297c3 f   concurrent_monitor.obj
 0001:000287cb       __ehhandler$?notify_all_relaxed@concurrent_monitor@internal@tbb@@QAEXXZ 100297cb f   concurrent_monitor.obj
 0001:000287e6       __unwindfunclet$?abort_all_relaxed@concurrent_monitor@internal@tbb@@QAEXXZ$0 100297e6 f   concurrent_monitor.obj
 0001:000287ee       __unwindfunclet$?abort_all_relaxed@concurrent_monitor@internal@tbb@@QAEXXZ$1 100297ee f   concurrent_monitor.obj
 0001:000287f6       __ehhandler$?abort_all_relaxed@concurrent_monitor@internal@tbb@@QAEXXZ 100297f6 f   concurrent_monitor.obj
 0001:00028820       __unwindfunclet$??0private_server@rml@internal@tbb@@QAE@AAVtbb_client@123@@Z$0 10029820 f   private_server.obj
 0001:0002883a       __ehhandler$??0private_server@rml@internal@tbb@@QAE@AAVtbb_client@123@@Z 1002983a f   private_server.obj
 0001:00028855       __unwindfunclet$?wake_some@private_server@rml@internal@tbb@@AAEXH@Z$1 10029855 f   private_server.obj
 0001:0002885d       __ehhandler$?wake_some@private_server@rml@internal@tbb@@AAEXH@Z 1002985d f   private_server.obj
 0001:00028878       __unwindfunclet$?make_private_server@rml@internal@tbb@@YAPAVtbb_server@123@AAVtbb_client@123@@Z$0 10029878 f   private_server.obj
 0001:00028889       __ehhandler$?make_private_server@rml@internal@tbb@@YAPAVtbb_server@123@AAVtbb_client@123@@Z 10029889 f   private_server.obj
 0001:000288b0       __unwindfunclet$??0private_worker@rml@internal@tbb@@IAE@AAVprivate_server@123@AAVtbb_client@123@I@Z$0 100298b0 f   private_server.obj
 0001:000288bb       __ehhandler$??0private_worker@rml@internal@tbb@@IAE@AAVprivate_server@123@AAVtbb_client@123@I@Z 100298bb f   private_server.obj
 0001:000288e0       __unwindfunclet$??0thread_monitor@internal@rml@@QAE@XZ$0 100298e0 f   private_server.obj
 0001:000288eb       __ehhandler$??0thread_monitor@internal@rml@@QAE@XZ 100298eb f   private_server.obj
 0001:00028910       __unwindfunclet$?try_insert_in_asleep_list@private_server@rml@internal@tbb@@AAE_NAAVprivate_worker@234@@Z$0 10029910 f   private_server.obj
 0001:00028918       __ehhandler$?try_insert_in_asleep_list@private_server@rml@internal@tbb@@AAE_NAAVprivate_worker@234@@Z 10029918 f   private_server.obj
 0001:00028940       __unwindfunclet$?allocate@captured_exception@tbb@@SAPAV12@PBD0@Z$0 10029940 f   task_group_context.obj
 0001:00028951       __ehhandler$?allocate@captured_exception@tbb@@SAPAV12@PBD0@Z 10029951 f   task_group_context.obj
 0001:0002896c       __unwindfunclet$?allocate@tbb_exception_ptr@internal@tbb@@SAPAV123@XZ$0 1002996c f   task_group_context.obj
 0001:00028974       __ehhandler$?allocate@tbb_exception_ptr@internal@tbb@@SAPAV123@XZ 10029974 f   task_group_context.obj
 0001:0002898f       __unwindfunclet$?allocate@tbb_exception_ptr@internal@tbb@@SAPAV123@ABVtbb_exception@3@@Z$0 1002998f f   task_group_context.obj
 0001:00028997       __ehhandler$?allocate@tbb_exception_ptr@internal@tbb@@SAPAV123@ABVtbb_exception@3@@Z 10029997 f   task_group_context.obj
 0001:000289b2       __unwindfunclet$??1task_group_context@tbb@@QAE@XZ$0 100299b2 f   task_group_context.obj
 0001:000289ba       __ehhandler$??1task_group_context@tbb@@QAE@XZ 100299ba f   task_group_context.obj
 0001:000289d5       __unwindfunclet$?register_with@task_group_context@tbb@@QAEXPAVgeneric_scheduler@internal@2@@Z$0 100299d5 f   task_group_context.obj
 0001:000289dd       __ehhandler$?register_with@task_group_context@tbb@@QAEXPAVgeneric_scheduler@internal@2@@Z 100299dd f   task_group_context.obj
 0001:000289f8       __ehhandler$?register_pending_exception@task_group_context@tbb@@QAEXXZ 100299f8 f   task_group_context.obj
 0001:00028a20       __unwindfunclet$?_Current_exception@_Exception_ptr@std@@SA?AV12@XZ$0 10029a20 f   task_group_context.obj
 0001:00028a28       __unwindfunclet$?_Current_exception@_Exception_ptr@std@@SA?AV12@XZ$1 10029a28 f   task_group_context.obj
 0001:00028a41       __ehhandler$?_Current_exception@_Exception_ptr@std@@SA?AV12@XZ 10029a41 f   task_group_context.obj
 0001:00028a60       __unwindfunclet$?lock@spin_mutex@tbb@@QAEXXZ$0 10029a60 f   task_group_context.obj
 0001:00028a71       __ehhandler$?lock@spin_mutex@tbb@@QAEXXZ 10029a71 f   task_group_context.obj
 0001:00028aa0       __unwindfunclet$??$AllocateExceptionContainer@V_Exception_ptr@std@@@internal@tbb@@YAPAVtbb_exception_ptr@01@ABV_Exception_ptr@std@@@Z$0 10029aa0 f   task_group_context.obj
 0001:00028ab1       __ehhandler$??$AllocateExceptionContainer@V_Exception_ptr@std@@@internal@tbb@@YAPAVtbb_exception_ptr@01@ABV_Exception_ptr@std@@@Z 10029ab1 f   task_group_context.obj
 0001:00028ad0       __unwindfunclet$??$AllocateExceptionContainer@Vcaptured_exception@tbb@@@internal@tbb@@YAPAVtbb_exception_ptr@01@ABVcaptured_exception@1@@Z$0 10029ad0 f   task_group_context.obj
 0001:00028ae1       __ehhandler$??$AllocateExceptionContainer@Vcaptured_exception@tbb@@@internal@tbb@@YAPAVtbb_exception_ptr@01@ABVcaptured_exception@1@@Z 10029ae1 f   task_group_context.obj
 0001:00028b00       __unwindfunclet$??$copy_exception@Vcaptured_exception@tbb@@@std@@YA?AV_Exception_ptr@0@Vcaptured_exception@tbb@@@Z$0 10029b00 f   task_group_context.obj
 0001:00028b08       __ehhandler$??$copy_exception@Vcaptured_exception@tbb@@@std@@YA?AV_Exception_ptr@0@Vcaptured_exception@tbb@@@Z 10029b08 f   task_group_context.obj
 0001:00028b30       __unwindfunclet$?_Copy_exception@_Exception_ptr@std@@SA?AV12@PAXPBX@Z$0 10029b30 f   task_group_context.obj
 0001:00028b38       __unwindfunclet$?_Copy_exception@_Exception_ptr@std@@SA?AV12@PAXPBX@Z$1 10029b38 f   task_group_context.obj
 0001:00028b51       __ehhandler$?_Copy_exception@_Exception_ptr@std@@SA?AV12@PAXPBX@Z 10029b51 f   task_group_context.obj
 0001:00028b70       __unwindfunclet$??$propagate_task_group_state@I@market@internal@tbb@@QAE_NPQtask_group_context@2@IAAV32@I@Z$0 10029b70 f   task_group_context.obj
 0001:00028b78       __unwindfunclet$??$propagate_task_group_state@I@market@internal@tbb@@QAE_NPQtask_group_context@2@IAAV32@I@Z$1 10029b78 f   task_group_context.obj
 0001:00028b80       __ehhandler$??$propagate_task_group_state@I@market@internal@tbb@@QAE_NPQtask_group_context@2@IAAV32@I@Z 10029b80 f   task_group_context.obj
 0001:00028ba0       __unwindfunclet$??$propagate_task_group_state@H@market@internal@tbb@@QAE_NPQtask_group_context@2@HAAV32@H@Z$0 10029ba0 f   task_group_context.obj
 0001:00028ba8       __unwindfunclet$??$propagate_task_group_state@H@market@internal@tbb@@QAE_NPQtask_group_context@2@HAAV32@H@Z$1 10029ba8 f   task_group_context.obj
 0001:00028bb0       __ehhandler$??$propagate_task_group_state@H@market@internal@tbb@@QAE_NPQtask_group_context@2@HAAV32@H@Z 10029bb0 f   task_group_context.obj
 0001:00028bd0       __unwindfunclet$??$propagate_task_group_state@I@generic_scheduler@internal@tbb@@QAEXPQtask_group_context@2@II@Z$0 10029bd0 f   task_group_context.obj
 0001:00028bd8       __ehhandler$??$propagate_task_group_state@I@generic_scheduler@internal@tbb@@QAEXPQtask_group_context@2@II@Z 10029bd8 f   task_group_context.obj
 0001:00028c00       __unwindfunclet$??$propagate_task_group_state@H@generic_scheduler@internal@tbb@@QAEXPQtask_group_context@2@HH@Z$0 10029c00 f   task_group_context.obj
 0001:00028c08       __ehhandler$??$propagate_task_group_state@H@generic_scheduler@internal@tbb@@QAEXPQtask_group_context@2@HH@Z 10029c08 f   task_group_context.obj
 0001:00028c30       __unwindfunclet$?global_market@market@internal@tbb@@CAAAV123@II@Z$0 10029c30 f   market.obj
 0001:00028c38       __unwindfunclet$?global_market@market@internal@tbb@@CAAAV123@II@Z$1 10029c38 f   market.obj
 0001:00028c49       __ehhandler$?global_market@market@internal@tbb@@CAAAV123@II@Z 10029c49 f   market.obj
 0001:00028c64       __unwindfunclet$?create_arena@market@internal@tbb@@SAAAVarena@23@II@Z$0 10029c64 f   market.obj
 0001:00028c6c       __ehhandler$?create_arena@market@internal@tbb@@SAAAVarena@23@II@Z 10029c6c f   market.obj
 0001:00028c87       __unwindfunclet$?try_destroy_arena@market@internal@tbb@@AAEXPAVarena@23@I@Z$0 10029c87 f   market.obj
 0001:00028c8f       __ehhandler$?try_destroy_arena@market@internal@tbb@@AAEXPAVarena@23@I@Z 10029c8f f   market.obj
 0001:00028caa       __unwindfunclet$?try_destroy_arena@market@internal@tbb@@SAXPAV123@PAVarena@23@I_N@Z$0 10029caa f   market.obj
 0001:00028cb2       __ehhandler$?try_destroy_arena@market@internal@tbb@@SAXPAV123@PAVarena@23@I_N@Z 10029cb2 f   market.obj
 0001:00028ccd       __unwindfunclet$?arena_in_need@market@internal@tbb@@AAEPAVarena@23@XZ$0 10029ccd f   market.obj
 0001:00028cd5       __ehhandler$?arena_in_need@market@internal@tbb@@AAEPAVarena@23@XZ 10029cd5 f   market.obj
 0001:00028cf0       __unwindfunclet$?lower_arena_priority@market@internal@tbb@@QAE_NAAVarena@23@HH@Z$0 10029cf0 f   market.obj
 0001:00028cf8       __ehhandler$?lower_arena_priority@market@internal@tbb@@QAE_NAAVarena@23@HH@Z 10029cf8 f   market.obj
 0001:00028d13       __unwindfunclet$?update_arena_priority@market@internal@tbb@@QAE_NAAVarena@23@H@Z$0 10029d13 f   market.obj
 0001:00028d1b       __ehhandler$?update_arena_priority@market@internal@tbb@@QAE_NAAVarena@23@H@Z 10029d1b f   market.obj
 0001:00028d36       __unwindfunclet$?workers_task_node_count@market@internal@tbb@@QAEHXZ$0 10029d36 f   market.obj
 0001:00028d3e       __ehhandler$?workers_task_node_count@market@internal@tbb@@QAEHXZ 10029d3e f   market.obj
 0001:00028d60       __unwindfunclet$??0arena@internal@tbb@@AAE@AAVmarket@12@I@Z$0 10029d60 f   arena.obj
 0001:00028d68       __ehhandler$??0arena@internal@tbb@@AAE@AAVmarket@12@I@Z 10029d68 f   arena.obj
 0001:00028d83       __unwindfunclet$?allocate_arena@arena@internal@tbb@@CAAAV123@AAVmarket@23@I@Z$0 10029d83 f   arena.obj
 0001:00028d94       __ehhandler$?allocate_arena@arena@internal@tbb@@CAAAV123@AAVmarket@23@I@Z 10029d94 f   arena.obj
 0001:00028db0       __unwindfunclet$?initialize@task_stream@internal@tbb@@QAEXI@Z$0 10029db0 f   arena.obj
 0001:00028dbb       __ehhandler$?initialize@task_stream@internal@tbb@@QAEXI@Z 10029dbb f   arena.obj
 0001:00028de0       __unwindfunclet$?drain@task_stream@internal@tbb@@QAEHXZ$0 10029de0 f   arena.obj
 0001:00028de8       __unwindfunclet$?drain@task_stream@internal@tbb@@QAEHXZ$1 10029de8 f   arena.obj
 0001:00028df0       __unwindfunclet$?drain@task_stream@internal@tbb@@QAEHXZ$2 10029df0 f   arena.obj
 0001:00028df8       __ehhandler$?drain@task_stream@internal@tbb@@QAEHXZ 10029df8 f   arena.obj
 0001:00028e20       __unwindfunclet$??1_Iterator_base12@std@@QAE@XZ$0 10029e20 f   arena.obj
 0001:00028e29       __ehhandler$??1_Iterator_base12@std@@QAE@XZ 10029e29 f   arena.obj
 0001:00028e50       __unwindfunclet$??0?$queue_and_mutex@PAVtask@tbb@@Vspin_mutex@2@@internal@tbb@@QAE@XZ$0 10029e50 f   arena.obj
 0001:00028e58       __ehhandler$??0?$queue_and_mutex@PAVtask@tbb@@Vspin_mutex@2@@internal@tbb@@QAE@XZ 10029e58 f   arena.obj
 0001:00028e80       __unwindfunclet$??0?$_Deque_val@PAVtask@tbb@@V?$tbb_allocator@PAVtask@tbb@@@2@@std@@QAE@V?$tbb_allocator@PAVtask@tbb@@@tbb@@@Z$0 10029e80 f   arena.obj
 0001:00028e89       __ehhandler$??0?$_Deque_val@PAVtask@tbb@@V?$tbb_allocator@PAVtask@tbb@@@2@@std@@QAE@V?$tbb_allocator@PAVtask@tbb@@@tbb@@@Z 10029e89 f   arena.obj
 0001:00028eb0       __unwindfunclet$??0?$_Deque_const_iterator@PAVtask@tbb@@V?$tbb_allocator@PAVtask@tbb@@@2@@std@@QAE@IPBU_Container_base12@1@@Z$0 10029eb0 f   arena.obj
 0001:00028eb8       __ehhandler$??0?$_Deque_const_iterator@PAVtask@tbb@@V?$tbb_allocator@PAVtask@tbb@@@2@@std@@QAE@IPBU_Container_base12@1@@Z 10029eb8 f   arena.obj
 0001:00028ee0       __unwindfunclet$?_Adopt@_Iterator_base12@std@@QAEXPBU_Container_base12@2@@Z$0 10029ee0 f   arena.obj
 0001:00028ee9       __ehhandler$?_Adopt@_Iterator_base12@std@@QAEXPBU_Container_base12@2@@Z 10029ee9 f   arena.obj
 0001:00028f10       __unwindfunclet$??0generic_scheduler@internal@tbb@@IAE@PAVarena@12@I@Z$0 10029f10 f   scheduler.obj
 0001:00028f18       __ehhandler$??0generic_scheduler@internal@tbb@@IAE@PAVarena@12@I@Z 10029f18 f   scheduler.obj
 0001:00028f33       __unwindfunclet$?cleanup_local_context_list@generic_scheduler@internal@tbb@@QAEXXZ$0 10029f33 f   scheduler.obj
 0001:00028f3b       __ehhandler$?cleanup_local_context_list@generic_scheduler@internal@tbb@@QAEXXZ 10029f3b f   scheduler.obj
 0001:00028f56       __unwindfunclet$?local_spawn@generic_scheduler@internal@tbb@@QAEXAAVtask@3@AAPAV43@@Z$0 10029f56 f   scheduler.obj
 0001:00028f61       __ehhandler$?local_spawn@generic_scheduler@internal@tbb@@QAEXAAVtask@3@AAPAV43@@Z 10029f61 f   scheduler.obj
 0001:00028f7f       __unwindfunclet$?local_spawn_root_and_wait@generic_scheduler@internal@tbb@@QAEXAAVtask@3@AAPAV43@@Z$0 10029f7f f   scheduler.obj
 0001:00028f87       __ehhandler$?local_spawn_root_and_wait@generic_scheduler@internal@tbb@@QAEXAAVtask@3@AAPAV43@@Z 10029f87 f   scheduler.obj
 0001:00028fa2       __unwindfunclet$?winnow_task_pool@generic_scheduler@internal@tbb@@QAEPAVtask@3@XZ$0 10029fa2 f   scheduler.obj
 0001:00028faa       __ehhandler$?winnow_task_pool@generic_scheduler@internal@tbb@@QAEPAVtask@3@XZ 10029faa f   scheduler.obj
 0001:00028fc5       __unwindfunclet$?reload_tasks@generic_scheduler@internal@tbb@@QAEPAVtask@3@AAPAV43@AAPAPAV43@H@Z$0 10029fc5 f   scheduler.obj
 0001:00028fd0       __ehhandler$?reload_tasks@generic_scheduler@internal@tbb@@QAEPAVtask@3@AAPAV43@AAPAPAV43@H@Z 10029fd0 f   scheduler.obj
 0001:00028fee       __unwindfunclet$?create_master@generic_scheduler@internal@tbb@@CAPAV123@AAVarena@23@@Z$0 10029fee f   scheduler.obj
 0001:00028fff       __ehhandler$?create_master@generic_scheduler@internal@tbb@@CAPAV123@AAVarena@23@@Z 10029fff f   scheduler.obj
 0001:00029020       __unwindfunclet$??0auto_empty_task@internal@tbb@@QAE@PAVgeneric_scheduler@12@PAVtask_group_context@2@@Z$0 1002a020 f   scheduler.obj
 0001:00029031       __ehhandler$??0auto_empty_task@internal@tbb@@QAE@PAVgeneric_scheduler@12@PAVtask_group_context@2@@Z 1002a031 f   scheduler.obj
 0001:00029050       __unwindfunclet$?push@task_stream@internal@tbb@@QAEXPAVtask@3@AAI@Z$0 1002a050 f   scheduler.obj
 0001:00029058       __ehhandler$?push@task_stream@internal@tbb@@QAEXPAVtask@3@AAI@Z 1002a058 f   scheduler.obj
 0001:00029080       __unwindfunclet$?allocate_scheduler@?$custom_scheduler@UDefaultSchedulerTraits@internal@tbb@@@internal@tbb@@SAPAVgeneric_scheduler@23@PAVarena@23@I@Z$0 1002a080 f   scheduler.obj
 0001:00029091       __ehhandler$?allocate_scheduler@?$custom_scheduler@UDefaultSchedulerTraits@internal@tbb@@@internal@tbb@@SAPAVgeneric_scheduler@23@PAVarena@23@I@Z 1002a091 f   scheduler.obj
 0001:000290b0       __unwindfunclet$?allocate_scheduler@?$custom_scheduler@UIntelSchedulerTraits@internal@tbb@@@internal@tbb@@SAPAVgeneric_scheduler@23@PAVarena@23@I@Z$0 1002a0b0 f   scheduler.obj
 0001:000290c1       __ehhandler$?allocate_scheduler@?$custom_scheduler@UIntelSchedulerTraits@internal@tbb@@@internal@tbb@@SAPAVgeneric_scheduler@23@PAVarena@23@I@Z 1002a0c1 f   scheduler.obj
 0001:000290e0       __ehhandler$?local_wait_for_all@?$custom_scheduler@UDefaultSchedulerTraits@internal@tbb@@@internal@tbb@@EAEXAAVtask@3@PAV43@@Z 1002a0e0 f   scheduler.obj
 0001:00029100       __unwindfunclet$?rethrow_exception@std@@YAXV_Exception_ptr@1@@Z$0 1002a100 f   scheduler.obj
 0001:00029108       __ehhandler$?rethrow_exception@std@@YAXV_Exception_ptr@1@@Z 1002a108 f   scheduler.obj
 0001:00029130       __unwindfunclet$?pop@task_stream@internal@tbb@@QAEXAAPAVtask@3@AAI@Z$0 1002a130 f   scheduler.obj
 0001:00029138       __ehhandler$?pop@task_stream@internal@tbb@@QAEXAAPAVtask@3@AAI@Z 1002a138 f   scheduler.obj
 0001:00029160       __unwindfunclet$?front@?$deque@PAVtask@tbb@@V?$tbb_allocator@PAVtask@tbb@@@2@@std@@QAEAAPAVtask@tbb@@XZ$0 1002a160 f   scheduler.obj
 0001:00029168       __ehhandler$?front@?$deque@PAVtask@tbb@@V?$tbb_allocator@PAVtask@tbb@@@2@@std@@QAEAAPAVtask@tbb@@XZ 1002a168 f   scheduler.obj
 0001:00029190       __ehhandler$?local_wait_for_all@?$custom_scheduler@UIntelSchedulerTraits@internal@tbb@@@internal@tbb@@EAEXAAVtask@3@PAV43@@Z 1002a190 f   scheduler.obj
 0001:000291b0       __ehhandler$??$_Uninit_copy@PAPAPAVtask@tbb@@PAPAPAV12@V?$tbb_allocator@PAPAVtask@tbb@@@2@@std@@YAPAPAPAVtask@tbb@@PAPAPAV12@00AAV?$tbb_allocator@PAPAVtask@tbb@@@2@U_Nonscalar_ptr_iterator_tag@0@@Z 1002a1b0 f   scheduler.obj
 0001:000291d0       __ehhandler$??$_Uninit_def_fill_n@PAPAPAVtask@tbb@@IPAPAV12@V?$tbb_allocator@PAPAVtask@tbb@@@2@PAPAV12@@std@@YAXPAPAPAVtask@tbb@@IPBQAPAV12@AAV?$tbb_allocator@PAPAVtask@tbb@@@2@0U_Nonscalar_ptr_iterator_tag@0@@Z 1002a1d0 f   scheduler.obj
 0001:000291f0       __unwindfunclet$?remove_ref_slow@observer_proxy@internal@tbb@@AAEXXZ$0 1002a1f0 f   observer_proxy.obj
 0001:000291f8       __ehhandler$?remove_ref_slow@observer_proxy@internal@tbb@@AAEXXZ 1002a1f8 f   observer_proxy.obj
 0001:00029213       __unwindfunclet$?process_list@observer_proxy@internal@tbb@@SAPAV123@PAV123@_N1@Z$4 1002a213 f   observer_proxy.obj
 0001:0002921b       __ehhandler$?process_list@observer_proxy@internal@tbb@@SAPAV123@PAV123@_N1@Z 1002a21b f   observer_proxy.obj
 0001:00029236       __unwindfunclet$?observe@task_scheduler_observer_v3@internal@tbb@@QAEX_N@Z$0 1002a236 f   observer_proxy.obj
 0001:00029241       __ehhandler$?observe@task_scheduler_observer_v3@internal@tbb@@QAEX_N@Z 1002a241 f   observer_proxy.obj
 0001:00029260       __unwindfunclet$?push@micro_queue@internal@tbb@@QAEXPBXIAAVconcurrent_queue_base@23@@Z$0 1002a260 f   concurrent_queue_v2.obj
 0001:00029268       __unwindfunclet$?push@micro_queue@internal@tbb@@QAEXPBXIAAVconcurrent_queue_base@23@@Z$1 1002a268 f   concurrent_queue_v2.obj
 0001:00029270       __ehhandler$?push@micro_queue@internal@tbb@@QAEXPBXIAAVconcurrent_queue_base@23@@Z 1002a270 f   concurrent_queue_v2.obj
 0001:0002928b       __unwindfunclet$?pop@micro_queue@internal@tbb@@QAE_NPAXIAAVconcurrent_queue_base@23@@Z$0 1002a28b f   concurrent_queue_v2.obj
 0001:00029293       __ehhandler$?pop@micro_queue@internal@tbb@@QAE_NPAXIAAVconcurrent_queue_base@23@@Z 1002a293 f   concurrent_queue_v2.obj
 0001:000292ae       __unwindfunclet$??0concurrent_queue_iterator_base@internal@tbb@@IAE@ABVconcurrent_queue_base@12@@Z$0 1002a2ae f   concurrent_queue_v2.obj
 0001:000292b9       __ehhandler$??0concurrent_queue_iterator_base@internal@tbb@@IAE@ABVconcurrent_queue_base@12@@Z 1002a2b9 f   concurrent_queue_v2.obj
 0001:000292e0       __unwindfunclet$??1pop_finalizer@micro_queue@internal@tbb@@QAE@XZ$0 1002a2e0 f   concurrent_queue_v2.obj
 0001:000292e8       __ehhandler$??1pop_finalizer@micro_queue@internal@tbb@@QAE@XZ 1002a2e8 f   concurrent_queue_v2.obj
 0001:00029310       ??__Ehash_multiplier@internal@interface5@tbb@@YAXXZ 1002a310 f   concurrent_hash_map.obj
 0001:00029340       ??__Ehandles@internal@tbb@@YAXXZ 1002a340 f   dynamic_link.obj
 0001:00029350       ??__Evenom@internal@tbb@@YAXXZ 1002a350 f   task.obj
 0001:00029380       ??__Evenom@internal@tbb@@YAXXZ 1002a380 f   tbb_thread.obj
 0001:000293b0       ??__Evenom@internal@tbb@@YAXXZ 1002a3b0 f   private_server.obj
 0001:000293e0       ??__Evenom@internal@tbb@@YAXXZ 1002a3e0 f   task_group_context.obj
 0001:00029410       ??__Evenom@internal@tbb@@YAXXZ 1002a410 f   governor.obj
 0001:00029440       ??__Evenom@internal@tbb@@YAXXZ 1002a440 f   market.obj
 0001:00029470       ??__Evenom@internal@tbb@@YAXXZ 1002a470 f   arena.obj
 0001:000294a0       ??__Evenom@internal@tbb@@YAXXZ 1002a4a0 f   scheduler.obj
 0001:000294d0       ??__Ethe_context_state_propagation_mutex@internal@tbb@@YAXXZ 1002a4d0 f   scheduler.obj
 0001:000294e0       ??__Ethe_dummy_context@internal@tbb@@YAXXZ 1002a4e0 f   scheduler.obj
 0001:00029510       ??__Evenom@internal@tbb@@YAXXZ 1002a510 f   observer_proxy.obj
 0001:00029540       ??__Ethe_check_observer_proxy_count@internal@tbb@@YAXXZ 1002a540 f   observer_proxy.obj
 0001:00029560       ??__Evenom@internal@tbb@@YAXXZ 1002a560 f   tbb_main.obj
 0001:00029590       ??__E?theMarketMutex@market@internal@tbb@@0Vspin_mutex@3@A@@YAXXZ 1002a590 f   tbb_main.obj
 0001:000295a0       ??__Fthe_dummy_context@internal@tbb@@YAXXZ 1002a5a0 f   scheduler.obj
 0001:000295b0       ??__Fthe_check_observer_proxy_count@internal@tbb@@YAXXZ 1002a5b0 f   observer_proxy.obj
